
bootloader.bin:     file format binary


Disassembly of section .data:

1fffd800 <.data>:
1fffd800:	1258      	asrs	r0, r3, #9
1fffd802:	2000      	movs	r0, #0
1fffd804:	f1bd 1fff 	cmp.w	sp, #16711935	@ 0xff00ff
1fffd808:	f1b5 1fff 	cmp.w	r5, #16711935	@ 0xff00ff
1fffd80c:	f1b5 1fff 	cmp.w	r5, #16711935	@ 0xff00ff
1fffd810:	f1b5 1fff 	cmp.w	r5, #16711935	@ 0xff00ff
1fffd814:	f1b5 1fff 	cmp.w	r5, #16711935	@ 0xff00ff
1fffd818:	f1b5 1fff 	cmp.w	r5, #16711935	@ 0xff00ff
1fffd81c:	f1b5 1fff 	cmp.w	r5, #16711935	@ 0xff00ff
1fffd820:	f1b5 1fff 	cmp.w	r5, #16711935	@ 0xff00ff
1fffd824:	f1b5 1fff 	cmp.w	r5, #16711935	@ 0xff00ff
1fffd828:	f1b5 1fff 	cmp.w	r5, #16711935	@ 0xff00ff
1fffd82c:	f1b5 1fff 	cmp.w	r5, #16711935	@ 0xff00ff
1fffd830:	f1b5 1fff 	cmp.w	r5, #16711935	@ 0xff00ff
1fffd834:	f1b5 1fff 	cmp.w	r5, #16711935	@ 0xff00ff
1fffd838:	f1b5 1fff 	cmp.w	r5, #16711935	@ 0xff00ff
1fffd83c:	f1b5 1fff 	cmp.w	r5, #16711935	@ 0xff00ff
1fffd840:	f1b5 1fff 	cmp.w	r5, #16711935	@ 0xff00ff
1fffd844:	f1b5 1fff 	cmp.w	r5, #16711935	@ 0xff00ff
1fffd848:	f1b5 1fff 	cmp.w	r5, #16711935	@ 0xff00ff
1fffd84c:	f1b5 1fff 	cmp.w	r5, #16711935	@ 0xff00ff
1fffd850:	f1b5 1fff 	cmp.w	r5, #16711935	@ 0xff00ff
1fffd854:	f1b5 1fff 	cmp.w	r5, #16711935	@ 0xff00ff
1fffd858:	f1b5 1fff 	cmp.w	r5, #16711935	@ 0xff00ff
1fffd85c:	f1b5 1fff 	cmp.w	r5, #16711935	@ 0xff00ff
1fffd860:	f1b5 1fff 	cmp.w	r5, #16711935	@ 0xff00ff
1fffd864:	f1b5 1fff 	cmp.w	r5, #16711935	@ 0xff00ff
1fffd868:	f1b5 1fff 	cmp.w	r5, #16711935	@ 0xff00ff
1fffd86c:	f1b5 1fff 	cmp.w	r5, #16711935	@ 0xff00ff
1fffd870:	f1b5 1fff 	cmp.w	r5, #16711935	@ 0xff00ff
1fffd874:	f1b5 1fff 	cmp.w	r5, #16711935	@ 0xff00ff
1fffd878:	f1b5 1fff 	cmp.w	r5, #16711935	@ 0xff00ff
1fffd87c:	f1b5 1fff 	cmp.w	r5, #16711935	@ 0xff00ff
1fffd880:	f1b5 1fff 	cmp.w	r5, #16711935	@ 0xff00ff
1fffd884:	f1b5 1fff 	cmp.w	r5, #16711935	@ 0xff00ff
1fffd888:	f1b5 1fff 	cmp.w	r5, #16711935	@ 0xff00ff
1fffd88c:	f1b5 1fff 	cmp.w	r5, #16711935	@ 0xff00ff
1fffd890:	f1b9 1fff 	cmp.w	r9, #16711935	@ 0xff00ff
1fffd894:	f1b5 1fff 	cmp.w	r5, #16711935	@ 0xff00ff
1fffd898:	f1b5 1fff 	cmp.w	r5, #16711935	@ 0xff00ff
1fffd89c:	f1b5 1fff 	cmp.w	r5, #16711935	@ 0xff00ff
1fffd8a0:	f1b5 1fff 	cmp.w	r5, #16711935	@ 0xff00ff
1fffd8a4:	f1b5 1fff 	cmp.w	r5, #16711935	@ 0xff00ff
1fffd8a8:	f1b5 1fff 	cmp.w	r5, #16711935	@ 0xff00ff
1fffd8ac:	f1b5 1fff 	cmp.w	r5, #16711935	@ 0xff00ff
1fffd8b0:	f1b5 1fff 	cmp.w	r5, #16711935	@ 0xff00ff
1fffd8b4:	f1b5 1fff 	cmp.w	r5, #16711935	@ 0xff00ff
1fffd8b8:	f1b5 1fff 	cmp.w	r5, #16711935	@ 0xff00ff
1fffd8bc:	f1b5 1fff 	cmp.w	r5, #16711935	@ 0xff00ff
1fffd8c0:	f1b5 1fff 	cmp.w	r5, #16711935	@ 0xff00ff
1fffd8c4:	f1b5 1fff 	cmp.w	r5, #16711935	@ 0xff00ff
1fffd8c8:	f1b5 1fff 	cmp.w	r5, #16711935	@ 0xff00ff
1fffd8cc:	f1b5 1fff 	cmp.w	r5, #16711935	@ 0xff00ff
1fffd8d0:	f1b5 1fff 	cmp.w	r5, #16711935	@ 0xff00ff
1fffd8d4:	f1b5 1fff 	cmp.w	r5, #16711935	@ 0xff00ff
1fffd8d8:	f1b5 1fff 	cmp.w	r5, #16711935	@ 0xff00ff
1fffd8dc:	f1b5 1fff 	cmp.w	r5, #16711935	@ 0xff00ff
1fffd8e0:	f1b5 1fff 	cmp.w	r5, #16711935	@ 0xff00ff
1fffd8e4:	f1b5 1fff 	cmp.w	r5, #16711935	@ 0xff00ff
1fffd8e8:	f1b5 1fff 	cmp.w	r5, #16711935	@ 0xff00ff
1fffd8ec:	f1b5 1fff 	cmp.w	r5, #16711935	@ 0xff00ff
1fffd8f0:	f1b5 1fff 	cmp.w	r5, #16711935	@ 0xff00ff
1fffd8f4:	f1b5 1fff 	cmp.w	r5, #16711935	@ 0xff00ff
1fffd8f8:	f1b5 1fff 	cmp.w	r5, #16711935	@ 0xff00ff
1fffd8fc:	f1b5 1fff 	cmp.w	r5, #16711935	@ 0xff00ff
1fffd900:	f1b5 1fff 	cmp.w	r5, #16711935	@ 0xff00ff
1fffd904:	f1b5 1fff 	cmp.w	r5, #16711935	@ 0xff00ff
1fffd908:	f1b5 1fff 	cmp.w	r5, #16711935	@ 0xff00ff
1fffd90c:	f1b5 1fff 	cmp.w	r5, #16711935	@ 0xff00ff
1fffd910:	f1b5 1fff 	cmp.w	r5, #16711935	@ 0xff00ff
1fffd914:	f1b5 1fff 	cmp.w	r5, #16711935	@ 0xff00ff
1fffd918:	f1b5 1fff 	cmp.w	r5, #16711935	@ 0xff00ff
1fffd91c:	f1b5 1fff 	cmp.w	r5, #16711935	@ 0xff00ff
1fffd920:	f1b5 1fff 	cmp.w	r5, #16711935	@ 0xff00ff
1fffd924:	f1b5 1fff 	cmp.w	r5, #16711935	@ 0xff00ff
1fffd928:	f1b5 1fff 	cmp.w	r5, #16711935	@ 0xff00ff
1fffd92c:	f1b5 1fff 	cmp.w	r5, #16711935	@ 0xff00ff
1fffd930:	f1b5 1fff 	cmp.w	r5, #16711935	@ 0xff00ff
1fffd934:	f1b5 1fff 	cmp.w	r5, #16711935	@ 0xff00ff
1fffd938:	f1b5 1fff 	cmp.w	r5, #16711935	@ 0xff00ff
1fffd93c:	f1b5 1fff 	cmp.w	r5, #16711935	@ 0xff00ff
1fffd940:	f1b5 1fff 	cmp.w	r5, #16711935	@ 0xff00ff
1fffd944:	f1b5 1fff 	cmp.w	r5, #16711935	@ 0xff00ff
1fffd948:	f1b5 1fff 	cmp.w	r5, #16711935	@ 0xff00ff
1fffd94c:	f1b5 1fff 	cmp.w	r5, #16711935	@ 0xff00ff
1fffd950:	f1b5 1fff 	cmp.w	r5, #16711935	@ 0xff00ff
1fffd954:	f1b5 1fff 	cmp.w	r5, #16711935	@ 0xff00ff
1fffd958:	f1b5 1fff 	cmp.w	r5, #16711935	@ 0xff00ff
1fffd95c:	f1b5 1fff 	cmp.w	r5, #16711935	@ 0xff00ff
1fffd960:	f1b5 1fff 	cmp.w	r5, #16711935	@ 0xff00ff
1fffd964:	f1b5 1fff 	cmp.w	r5, #16711935	@ 0xff00ff
1fffd968:	f1b5 1fff 	cmp.w	r5, #16711935	@ 0xff00ff
1fffd96c:	f1b9 1fff 	cmp.w	r9, #16711935	@ 0xff00ff
1fffd970:	f1b5 1fff 	cmp.w	r5, #16711935	@ 0xff00ff
1fffd974:	f1b5 1fff 	cmp.w	r5, #16711935	@ 0xff00ff
1fffd978:	f1b5 1fff 	cmp.w	r5, #16711935	@ 0xff00ff
1fffd97c:	f1b5 1fff 	cmp.w	r5, #16711935	@ 0xff00ff
1fffd980:	f1b5 1fff 	cmp.w	r5, #16711935	@ 0xff00ff
1fffd984:	f1b5 1fff 	cmp.w	r5, #16711935	@ 0xff00ff
1fffd988:	b580      	push	{r7, lr}
1fffd98a:	f000 fabf 	bl	0x1fffdf0c
1fffd98e:	e8bd 4001 	ldmia.w	sp!, {r0, lr}
1fffd992:	f000 bb4d 	b.w	0x1fffe030
1fffd996:	b580      	push	{r7, lr}
1fffd998:	f000 fb56 	bl	0x1fffe048
1fffd99c:	f8df 0520 	ldr.w	r0, [pc, #1312]	@ 0x1fffdec0
1fffd9a0:	e004      	b.n	0x1fffd9ac
1fffd9a2:	f8df 1520 	ldr.w	r1, [pc, #1312]	@ 0x1fffdec4
1fffd9a6:	f64a 22aa 	movw	r2, #43690	@ 0xaaaa
1fffd9aa:	600a      	str	r2, [r1, #0]
1fffd9ac:	6801      	ldr	r1, [r0, #0]
1fffd9ae:	f640 22aa 	movw	r2, #2730	@ 0xaaa
1fffd9b2:	4291      	cmp	r1, r2
1fffd9b4:	d0f5      	beq.n	0x1fffd9a2
1fffd9b6:	e8bd 4001 	ldmia.w	sp!, {r0, lr}
1fffd9ba:	f000 bb85 	b.w	0x1fffe0c8
1fffd9be:	b580      	push	{r7, lr}
1fffd9c0:	f8df 0504 	ldr.w	r0, [pc, #1284]	@ 0x1fffdec8
1fffd9c4:	210a      	movs	r1, #10
1fffd9c6:	7201      	strb	r1, [r0, #8]
1fffd9c8:	7001      	strb	r1, [r0, #0]
1fffd9ca:	7101      	strb	r1, [r0, #4]
1fffd9cc:	f000 faec 	bl	0x1fffdfa8
1fffd9d0:	f8df 04f8 	ldr.w	r0, [pc, #1272]	@ 0x1fffdecc
1fffd9d4:	2100      	movs	r1, #0
1fffd9d6:	7281      	strb	r1, [r0, #10]
1fffd9d8:	f000 fcf8 	bl	0x1fffe3cc
1fffd9dc:	f8df 04f0 	ldr.w	r0, [pc, #1264]	@ 0x1fffded0
1fffd9e0:	2100      	movs	r1, #0
1fffd9e2:	6041      	str	r1, [r0, #4]
1fffd9e4:	f8df 24ec 	ldr.w	r2, [pc, #1260]	@ 0x1fffded4
1fffd9e8:	f44f 413e 	mov.w	r1, #48640	@ 0xbe00
1fffd9ec:	8011      	strh	r1, [r2, #0]
1fffd9ee:	6001      	str	r1, [r0, #0]
1fffd9f0:	e8bd 4001 	ldmia.w	sp!, {r0, lr}
1fffd9f4:	f000 bac1 	b.w	0x1fffdf7a
1fffd9f8:	b510      	push	{r4, lr}
1fffd9fa:	f8df 04d0 	ldr.w	r0, [pc, #1232]	@ 0x1fffdecc
1fffd9fe:	2100      	movs	r1, #0
1fffda00:	7281      	strb	r1, [r0, #10]
1fffda02:	f8df 14d4 	ldr.w	r1, [pc, #1236]	@ 0x1fffded8
1fffda06:	f8df 04d4 	ldr.w	r0, [pc, #1236]	@ 0x1fffdedc
1fffda0a:	79c9      	ldrb	r1, [r1, #7]
1fffda0c:	6800      	ldr	r0, [r0, #0]
1fffda0e:	f648 128f 	movw	r2, #35215	@ 0x898f
1fffda12:	7241      	strb	r1, [r0, #9]
1fffda14:	f8df 04c8 	ldr.w	r0, [pc, #1224]	@ 0x1fffdee0
1fffda18:	2100      	movs	r1, #0
1fffda1a:	6501      	str	r1, [r0, #80]	@ 0x50
1fffda1c:	6801      	ldr	r1, [r0, #0]
1fffda1e:	2310      	movs	r3, #16
1fffda20:	4011      	ands	r1, r2
1fffda22:	f44f 7200 	mov.w	r2, #512	@ 0x200
1fffda26:	4311      	orrs	r1, r2
1fffda28:	6001      	str	r1, [r0, #0]
1fffda2a:	6801      	ldr	r1, [r0, #0]
1fffda2c:	f648 72bf 	movw	r2, #36799	@ 0x8fbf
1fffda30:	4011      	ands	r1, r2
1fffda32:	f081 0120 	eor.w	r1, r1, #32
1fffda36:	6001      	str	r1, [r0, #0]
1fffda38:	6d01      	ldr	r1, [r0, #80]	@ 0x50
1fffda3a:	f8df 24a8 	ldr.w	r2, [pc, #1192]	@ 0x1fffdee4
1fffda3e:	b289      	uxth	r1, r1
1fffda40:	f842 3011 	str.w	r3, [r2, r1, lsl #1]
1fffda44:	6d01      	ldr	r1, [r0, #80]	@ 0x50
1fffda46:	f8df 24a0 	ldr.w	r2, [pc, #1184]	@ 0x1fffdee8
1fffda4a:	b289      	uxth	r1, r1
1fffda4c:	eb02 0141 	add.w	r1, r2, r1, lsl #1
1fffda50:	f8df 2498 	ldr.w	r2, [pc, #1176]	@ 0x1fffdeec
1fffda54:	f892 202c 	ldrb.w	r2, [r2, #44]	@ 0x2c
1fffda58:	2a3f      	cmp	r2, #63	@ 0x3f
1fffda5a:	d309      	bcc.n	0x1fffda70
1fffda5c:	0953      	lsrs	r3, r2, #5
1fffda5e:	241f      	movs	r4, #31
1fffda60:	4222      	tst	r2, r4
1fffda62:	bf08      	it	eq
1fffda64:	1e5b      	subeq	r3, r3, #1
1fffda66:	041b      	lsls	r3, r3, #16
1fffda68:	099b      	lsrs	r3, r3, #6
1fffda6a:	f443 4300 	orr.w	r3, r3, #32768	@ 0x8000
1fffda6e:	e005      	b.n	0x1fffda7c
1fffda70:	0853      	lsrs	r3, r2, #1
1fffda72:	07d4      	lsls	r4, r2, #31
1fffda74:	bf48      	it	mi
1fffda76:	1c5b      	addmi	r3, r3, #1
1fffda78:	041b      	lsls	r3, r3, #16
1fffda7a:	099b      	lsrs	r3, r3, #6
1fffda7c:	600b      	str	r3, [r1, #0]
1fffda7e:	6d01      	ldr	r1, [r0, #80]	@ 0x50
1fffda80:	f8df 346c 	ldr.w	r3, [pc, #1132]	@ 0x1fffdef0
1fffda84:	b289      	uxth	r1, r1
1fffda86:	2450      	movs	r4, #80	@ 0x50
1fffda88:	f843 4011 	str.w	r4, [r3, r1, lsl #1]
1fffda8c:	6d01      	ldr	r1, [r0, #80]	@ 0x50
1fffda8e:	f8df 3464 	ldr.w	r3, [pc, #1124]	@ 0x1fffdef4
1fffda92:	b289      	uxth	r1, r1
1fffda94:	f843 2011 	str.w	r2, [r3, r1, lsl #1]
1fffda98:	6801      	ldr	r1, [r0, #0]
1fffda9a:	f648 628f 	movw	r2, #36495	@ 0x8e8f
1fffda9e:	4011      	ands	r1, r2
1fffdaa0:	6001      	str	r1, [r0, #0]
1fffdaa2:	6801      	ldr	r1, [r0, #0]
1fffdaa4:	f64b 728f 	movw	r2, #49039	@ 0xbf8f
1fffdaa8:	4011      	ands	r1, r2
1fffdaaa:	f481 5140 	eor.w	r1, r1, #12288	@ 0x3000
1fffdaae:	6001      	str	r1, [r0, #0]
1fffdab0:	6801      	ldr	r1, [r0, #0]
1fffdab2:	f648 728f 	movw	r2, #36751	@ 0x8f8f
1fffdab6:	4011      	ands	r1, r2
1fffdab8:	6001      	str	r1, [r0, #0]
1fffdaba:	2180      	movs	r1, #128	@ 0x80
1fffdabc:	64c1      	str	r1, [r0, #76]	@ 0x4c
1fffdabe:	bd10      	pop	{r4, pc}
1fffdac0:	4770      	bx	lr
1fffdac2:	f8df 0408 	ldr.w	r0, [pc, #1032]	@ 0x1fffdecc
1fffdac6:	7840      	ldrb	r0, [r0, #1]
1fffdac8:	2803      	cmp	r0, #3
1fffdaca:	d000      	beq.n	0x1fffdace
1fffdacc:	4770      	bx	lr
1fffdace:	b538      	push	{r3, r4, r5, lr}
1fffdad0:	f8df 43f4 	ldr.w	r4, [pc, #1012]	@ 0x1fffdec8
1fffdad4:	7a20      	ldrb	r0, [r4, #8]
1fffdad6:	2804      	cmp	r0, #4
1fffdad8:	d16b      	bne.n	0x1fffdbb2
1fffdada:	68e0      	ldr	r0, [r4, #12]
1fffdadc:	2800      	cmp	r0, #0
1fffdade:	d13f      	bne.n	0x1fffdb60
1fffdae0:	f8df 5414 	ldr.w	r5, [pc, #1044]	@ 0x1fffdef8
1fffdae4:	6920      	ldr	r0, [r4, #16]
1fffdae6:	7829      	ldrb	r1, [r5, #0]
1fffdae8:	b919      	cbnz	r1, 0x1fffdaf2
1fffdaea:	2801      	cmp	r0, #1
1fffdaec:	d05a      	beq.n	0x1fffdba4
1fffdaee:	200f      	movs	r0, #15
1fffdaf0:	e051      	b.n	0x1fffdb96
1fffdaf2:	2921      	cmp	r1, #33	@ 0x21
1fffdaf4:	d10e      	bne.n	0x1fffdb14
1fffdaf6:	2805      	cmp	r0, #5
1fffdaf8:	d1f9      	bne.n	0x1fffdaee
1fffdafa:	f000 fe2f 	bl	0x1fffe75c
1fffdafe:	2801      	cmp	r0, #1
1fffdb00:	d034      	beq.n	0x1fffdb6c
1fffdb02:	f000 f85d 	bl	0x1fffdbc0
1fffdb06:	f88d 0000 	strb.w	r0, [sp]
1fffdb0a:	f89d 0000 	ldrb.w	r0, [sp]
1fffdb0e:	2801      	cmp	r0, #1
1fffdb10:	d148      	bne.n	0x1fffdba4
1fffdb12:	e03f      	b.n	0x1fffdb94
1fffdb14:	2941      	cmp	r1, #65	@ 0x41
1fffdb16:	d117      	bne.n	0x1fffdb48
1fffdb18:	f000 fe20 	bl	0x1fffe75c
1fffdb1c:	2801      	cmp	r0, #1
1fffdb1e:	d025      	beq.n	0x1fffdb6c
1fffdb20:	6920      	ldr	r0, [r4, #16]
1fffdb22:	2805      	cmp	r0, #5
1fffdb24:	d10b      	bne.n	0x1fffdb3e
1fffdb26:	f000 f84b 	bl	0x1fffdbc0
1fffdb2a:	f88d 0000 	strb.w	r0, [sp]
1fffdb2e:	f89d 0000 	ldrb.w	r0, [sp]
1fffdb32:	2802      	cmp	r0, #2
1fffdb34:	d12e      	bne.n	0x1fffdb94
1fffdb36:	69a0      	ldr	r0, [r4, #24]
1fffdb38:	f000 fa8b 	bl	0x1fffe052
1fffdb3c:	e032      	b.n	0x1fffdba4
1fffdb3e:	2801      	cmp	r0, #1
1fffdb40:	d130      	bne.n	0x1fffdba4
1fffdb42:	f000 fd7d 	bl	0x1fffe640
1fffdb46:	e02d      	b.n	0x1fffdba4
1fffdb48:	2992      	cmp	r1, #146	@ 0x92
1fffdb4a:	bf08      	it	eq
1fffdb4c:	2801      	cmpeq	r0, #1
1fffdb4e:	d1ce      	bne.n	0x1fffdaee
1fffdb50:	2000      	movs	r0, #0
1fffdb52:	f000 fdbc 	bl	0x1fffe6ce
1fffdb56:	f000 fcba 	bl	0x1fffe4ce
1fffdb5a:	f000 fe20 	bl	0x1fffe79e
1fffdb5e:	e021      	b.n	0x1fffdba4
1fffdb60:	2802      	cmp	r0, #2
1fffdb62:	d31f      	bcc.n	0x1fffdba4
1fffdb64:	f000 fdfa 	bl	0x1fffe75c
1fffdb68:	2801      	cmp	r0, #1
1fffdb6a:	d101      	bne.n	0x1fffdb70
1fffdb6c:	200b      	movs	r0, #11
1fffdb6e:	e012      	b.n	0x1fffdb96
1fffdb70:	68e0      	ldr	r0, [r4, #12]
1fffdb72:	69a1      	ldr	r1, [r4, #24]
1fffdb74:	1e80      	subs	r0, r0, #2
1fffdb76:	eb01 25c0 	add.w	r5, r1, r0, lsl #11
1fffdb7a:	4628      	mov	r0, r5
1fffdb7c:	f000 fc86 	bl	0x1fffe48c
1fffdb80:	f88d 0000 	strb.w	r0, [sp]
1fffdb84:	f89d 0000 	ldrb.w	r0, [sp]
1fffdb88:	2801      	cmp	r0, #1
1fffdb8a:	bf1c      	itt	ne
1fffdb8c:	f89d 0000 	ldrbne.w	r0, [sp]
1fffdb90:	2805      	cmpne	r0, #5
1fffdb92:	d103      	bne.n	0x1fffdb9c
1fffdb94:	2001      	movs	r0, #1
1fffdb96:	e8bd 4032 	ldmia.w	sp!, {r1, r4, r5, lr}
1fffdb9a:	e188      	b.n	0x1fffdeae
1fffdb9c:	6921      	ldr	r1, [r4, #16]
1fffdb9e:	4628      	mov	r0, r5
1fffdba0:	f000 fa59 	bl	0x1fffe056
1fffdba4:	2000      	movs	r0, #0
1fffdba6:	6120      	str	r0, [r4, #16]
1fffdba8:	60e0      	str	r0, [r4, #12]
1fffdbaa:	2003      	movs	r0, #3
1fffdbac:	7220      	strb	r0, [r4, #8]
1fffdbae:	7120      	strb	r0, [r4, #4]
1fffdbb0:	bd31      	pop	{r0, r4, r5, pc}
1fffdbb2:	2807      	cmp	r0, #7
1fffdbb4:	bf04      	itt	eq
1fffdbb6:	e8bd 4031 	ldmiaeq.w	sp!, {r0, r4, r5, lr}
1fffdbba:	f000 b95d 	beq.w	0x1fffde78
1fffdbbe:	bd31      	pop	{r0, r4, r5, pc}
1fffdbc0:	7868      	ldrb	r0, [r5, #1]
1fffdbc2:	78a9      	ldrb	r1, [r5, #2]
1fffdbc4:	eb10 2001 	adds.w	r0, r0, r1, lsl #8
1fffdbc8:	78e9      	ldrb	r1, [r5, #3]
1fffdbca:	eb00 4001 	add.w	r0, r0, r1, lsl #16
1fffdbce:	7929      	ldrb	r1, [r5, #4]
1fffdbd0:	eb00 6001 	add.w	r0, r0, r1, lsl #24
1fffdbd4:	61a0      	str	r0, [r4, #24]
1fffdbd6:	f000 bc59 	b.w	0x1fffe48c
1fffdbda:	b580      	push	{r7, lr}
1fffdbdc:	49bf      	ldr	r1, [pc, #764]	@ (0x1fffdedc)
1fffdbde:	6809      	ldr	r1, [r1, #0]
1fffdbe0:	780a      	ldrb	r2, [r1, #0]
1fffdbe2:	f002 027f 	and.w	r2, r2, #127	@ 0x7f
1fffdbe6:	2a21      	cmp	r2, #33	@ 0x21
1fffdbe8:	d121      	bne.n	0x1fffdc2e
1fffdbea:	4ab7      	ldr	r2, [pc, #732]	@ (0x1fffdec8)
1fffdbec:	2802      	cmp	r0, #2
1fffdbee:	7a13      	ldrb	r3, [r2, #8]
1fffdbf0:	d108      	bne.n	0x1fffdc04
1fffdbf2:	2b02      	cmp	r3, #2
1fffdbf4:	bf18      	it	ne
1fffdbf6:	2b09      	cmpne	r3, #9
1fffdbf8:	d119      	bne.n	0x1fffdc2e
1fffdbfa:	f20f 1209 	addw	r2, pc, #265	@ 0x109
1fffdbfe:	0010      	movs	r0, r2
1fffdc00:	d117      	bne.n	0x1fffdc32
1fffdc02:	e014      	b.n	0x1fffdc2e
1fffdc04:	2801      	cmp	r0, #1
1fffdc06:	d108      	bne.n	0x1fffdc1a
1fffdc08:	2b02      	cmp	r3, #2
1fffdc0a:	bf18      	it	ne
1fffdc0c:	2b05      	cmpne	r3, #5
1fffdc0e:	d10e      	bne.n	0x1fffdc2e
1fffdc10:	2003      	movs	r0, #3
1fffdc12:	7210      	strb	r0, [r2, #8]
1fffdc14:	f20f 12b1 	addw	r2, pc, #433	@ 0x1b1
1fffdc18:	e7f1      	b.n	0x1fffdbfe
1fffdc1a:	2805      	cmp	r0, #5
1fffdc1c:	bf08      	it	eq
1fffdc1e:	f20f 12e1 	addweq	r2, pc, #481	@ 0x1e1
1fffdc22:	d0ec      	beq.n	0x1fffdbfe
1fffdc24:	2803      	cmp	r0, #3
1fffdc26:	bf08      	it	eq
1fffdc28:	f20f 12e9 	addweq	r2, pc, #489	@ 0x1e9
1fffdc2c:	d0e7      	beq.n	0x1fffdbfe
1fffdc2e:	2002      	movs	r0, #2
1fffdc30:	bd02      	pop	{r1, pc}
1fffdc32:	61ca      	str	r2, [r1, #28]
1fffdc34:	2000      	movs	r0, #0
1fffdc36:	6148      	str	r0, [r1, #20]
1fffdc38:	4790      	blx	r2
1fffdc3a:	2000      	movs	r0, #0
1fffdc3c:	bd02      	pop	{r1, pc}
1fffdc3e:	49a7      	ldr	r1, [pc, #668]	@ (0x1fffdedc)
1fffdc40:	6809      	ldr	r1, [r1, #0]
1fffdc42:	7809      	ldrb	r1, [r1, #0]
1fffdc44:	f001 017f 	and.w	r1, r1, #127	@ 0x7f
1fffdc48:	2921      	cmp	r1, #33	@ 0x21
1fffdc4a:	d13e      	bne.n	0x1fffdcca
1fffdc4c:	499e      	ldr	r1, [pc, #632]	@ (0x1fffdec8)
1fffdc4e:	2801      	cmp	r0, #1
1fffdc50:	7a0a      	ldrb	r2, [r1, #8]
1fffdc52:	d10b      	bne.n	0x1fffdc6c
1fffdc54:	2a05      	cmp	r2, #5
1fffdc56:	bf18      	it	ne
1fffdc58:	2a02      	cmpne	r2, #2
1fffdc5a:	d136      	bne.n	0x1fffdcca
1fffdc5c:	6148      	str	r0, [r1, #20]
1fffdc5e:	2006      	movs	r0, #6
1fffdc60:	7208      	strb	r0, [r1, #8]
1fffdc62:	2000      	movs	r0, #0
1fffdc64:	7048      	strb	r0, [r1, #1]
1fffdc66:	7088      	strb	r0, [r1, #2]
1fffdc68:	2006      	movs	r0, #6
1fffdc6a:	e006      	b.n	0x1fffdc7a
1fffdc6c:	2802      	cmp	r0, #2
1fffdc6e:	d106      	bne.n	0x1fffdc7e
1fffdc70:	7208      	strb	r0, [r1, #8]
1fffdc72:	2000      	movs	r0, #0
1fffdc74:	7048      	strb	r0, [r1, #1]
1fffdc76:	7088      	strb	r0, [r1, #2]
1fffdc78:	2002      	movs	r0, #2
1fffdc7a:	7108      	strb	r0, [r1, #4]
1fffdc7c:	e023      	b.n	0x1fffdcc6
1fffdc7e:	2804      	cmp	r0, #4
1fffdc80:	d10c      	bne.n	0x1fffdc9c
1fffdc82:	2a0a      	cmp	r2, #10
1fffdc84:	bf07      	ittee	eq
1fffdc86:	2002      	moveq	r0, #2
1fffdc88:	2200      	moveq	r2, #0
1fffdc8a:	200a      	movne	r0, #10
1fffdc8c:	220e      	movne	r2, #14
1fffdc8e:	7108      	strb	r0, [r1, #4]
1fffdc90:	7208      	strb	r0, [r1, #8]
1fffdc92:	2000      	movs	r0, #0
1fffdc94:	700a      	strb	r2, [r1, #0]
1fffdc96:	7048      	strb	r0, [r1, #1]
1fffdc98:	7088      	strb	r0, [r1, #2]
1fffdc9a:	4770      	bx	lr
1fffdc9c:	2806      	cmp	r0, #6
1fffdc9e:	d114      	bne.n	0x1fffdcca
1fffdca0:	2a02      	cmp	r2, #2
1fffdca2:	bf18      	it	ne
1fffdca4:	2a03      	cmpne	r2, #3
1fffdca6:	d004      	beq.n	0x1fffdcb2
1fffdca8:	2a05      	cmp	r2, #5
1fffdcaa:	bf1c      	itt	ne
1fffdcac:	2a06      	cmpne	r2, #6
1fffdcae:	2a09      	cmpne	r2, #9
1fffdcb0:	d109      	bne.n	0x1fffdcc6
1fffdcb2:	2002      	movs	r0, #2
1fffdcb4:	7208      	strb	r0, [r1, #8]
1fffdcb6:	2000      	movs	r0, #0
1fffdcb8:	8008      	strh	r0, [r1, #0]
1fffdcba:	7088      	strb	r0, [r1, #2]
1fffdcbc:	2002      	movs	r0, #2
1fffdcbe:	7108      	strb	r0, [r1, #4]
1fffdcc0:	2000      	movs	r0, #0
1fffdcc2:	60c8      	str	r0, [r1, #12]
1fffdcc4:	6108      	str	r0, [r1, #16]
1fffdcc6:	2000      	movs	r0, #0
1fffdcc8:	4770      	bx	lr
1fffdcca:	2002      	movs	r0, #2
1fffdccc:	4770      	bx	lr
1fffdcce:	498b      	ldr	r1, [pc, #556]	@ (0x1fffdefc)
1fffdcd0:	f000 be32 	b.w	0x1fffe938
1fffdcd4:	498a      	ldr	r1, [pc, #552]	@ (0x1fffdf00)
1fffdcd6:	f000 be2f 	b.w	0x1fffe938
1fffdcda:	4980      	ldr	r1, [pc, #512]	@ (0x1fffdedc)
1fffdcdc:	6809      	ldr	r1, [r1, #0]
1fffdcde:	78c9      	ldrb	r1, [r1, #3]
1fffdce0:	2909      	cmp	r1, #9
1fffdce2:	db01      	blt.n	0x1fffdce8
1fffdce4:	2000      	movs	r0, #0
1fffdce6:	4770      	bx	lr
1fffdce8:	4a86      	ldr	r2, [pc, #536]	@ (0x1fffdf04)
1fffdcea:	eb02 01c1 	add.w	r1, r2, r1, lsl #3
1fffdcee:	f000 be23 	b.w	0x1fffe938
1fffdcf2:	2904      	cmp	r1, #4
1fffdcf4:	bf38      	it	cc
1fffdcf6:	2803      	cmpcc	r0, #3
1fffdcf8:	d301      	bcc.n	0x1fffdcfe
1fffdcfa:	2002      	movs	r0, #2
1fffdcfc:	4770      	bx	lr
1fffdcfe:	2000      	movs	r0, #0
1fffdd00:	4770      	bx	lr
1fffdd02:	0000      	movs	r0, r0
1fffdd04:	e92d 41f0 	stmdb	sp!, {r4, r5, r6, r7, r8, lr}
1fffdd08:	4604      	mov	r4, r0
1fffdd0a:	4870      	ldr	r0, [pc, #448]	@ (0x1fffdecc)
1fffdd0c:	7881      	ldrb	r1, [r0, #2]
1fffdd0e:	78c2      	ldrb	r2, [r0, #3]
1fffdd10:	4e72      	ldr	r6, [pc, #456]	@ (0x1fffdedc)
1fffdd12:	4d6d      	ldr	r5, [pc, #436]	@ (0x1fffdec8)
1fffdd14:	eb12 2201 	adds.w	r2, r2, r1, lsl #8
1fffdd18:	79c1      	ldrb	r1, [r0, #7]
1fffdd1a:	7980      	ldrb	r0, [r0, #6]
1fffdd1c:	60ea      	str	r2, [r5, #12]
1fffdd1e:	b082      	sub	sp, #8
1fffdd20:	eb10 2001 	adds.w	r0, r0, r1, lsl #8
1fffdd24:	6831      	ldr	r1, [r6, #0]
1fffdd26:	6128      	str	r0, [r5, #16]
1fffdd28:	694f      	ldr	r7, [r1, #20]
1fffdd2a:	b293      	uxth	r3, r2
1fffdd2c:	b9a3      	cbnz	r3, 0x1fffdd58
1fffdd2e:	b280      	uxth	r0, r0
1fffdd30:	2804      	cmp	r0, #4
1fffdd32:	bf2c      	ite	cs
1fffdd34:	2002      	movcs	r0, #2
1fffdd36:	2009      	movcc	r0, #9
1fffdd38:	7228      	strb	r0, [r5, #8]
1fffdd3a:	7a28      	ldrb	r0, [r5, #8]
1fffdd3c:	2200      	movs	r2, #0
1fffdd3e:	7128      	strb	r0, [r5, #4]
1fffdd40:	486d      	ldr	r0, [pc, #436]	@ (0x1fffdef8)
1fffdd42:	7002      	strb	r2, [r0, #0]
1fffdd44:	2221      	movs	r2, #33	@ 0x21
1fffdd46:	7042      	strb	r2, [r0, #1]
1fffdd48:	2241      	movs	r2, #65	@ 0x41
1fffdd4a:	7082      	strb	r2, [r0, #2]
1fffdd4c:	2292      	movs	r2, #146	@ 0x92
1fffdd4e:	70c2      	strb	r2, [r0, #3]
1fffdd50:	2c00      	cmp	r4, #0
1fffdd52:	d137      	bne.n	0x1fffddc4
1fffdd54:	2004      	movs	r0, #4
1fffdd56:	e028      	b.n	0x1fffddaa
1fffdd58:	b292      	uxth	r2, r2
1fffdd5a:	2a02      	cmp	r2, #2
1fffdd5c:	d32e      	bcc.n	0x1fffddbc
1fffdd5e:	f000 fcfd 	bl	0x1fffe75c
1fffdd62:	bb38      	cbnz	r0, 0x1fffddb4
1fffdd64:	2009      	movs	r0, #9
1fffdd66:	7228      	strb	r0, [r5, #8]
1fffdd68:	7128      	strb	r0, [r5, #4]
1fffdd6a:	68e8      	ldr	r0, [r5, #12]
1fffdd6c:	69a9      	ldr	r1, [r5, #24]
1fffdd6e:	1e80      	subs	r0, r0, #2
1fffdd70:	eb01 28c0 	add.w	r8, r1, r0, lsl #11
1fffdd74:	4640      	mov	r0, r8
1fffdd76:	f000 fb89 	bl	0x1fffe48c
1fffdd7a:	f88d 0000 	strb.w	r0, [sp]
1fffdd7e:	f89d 0000 	ldrb.w	r0, [sp]
1fffdd82:	2801      	cmp	r0, #1
1fffdd84:	d109      	bne.n	0x1fffdd9a
1fffdd86:	200a      	movs	r0, #10
1fffdd88:	7228      	strb	r0, [r5, #8]
1fffdd8a:	2001      	movs	r0, #1
1fffdd8c:	7028      	strb	r0, [r5, #0]
1fffdd8e:	200a      	movs	r0, #10
1fffdd90:	7128      	strb	r0, [r5, #4]
1fffdd92:	2000      	movs	r0, #0
1fffdd94:	6128      	str	r0, [r5, #16]
1fffdd96:	60e8      	str	r0, [r5, #12]
1fffdd98:	e014      	b.n	0x1fffddc4
1fffdd9a:	6929      	ldr	r1, [r5, #16]
1fffdd9c:	4640      	mov	r0, r8
1fffdd9e:	f000 f978 	bl	0x1fffe092
1fffdda2:	b924      	cbnz	r4, 0x1fffddae
1fffdda4:	6928      	ldr	r0, [r5, #16]
1fffdda6:	6831      	ldr	r1, [r6, #0]
1fffdda8:	1bc0      	subs	r0, r0, r7
1fffddaa:	8208      	strh	r0, [r1, #16]
1fffddac:	e009      	b.n	0x1fffddc2
1fffddae:	b2bf      	uxth	r7, r7
1fffddb0:	1838      	adds	r0, r7, r0
1fffddb2:	e007      	b.n	0x1fffddc4
1fffddb4:	200b      	movs	r0, #11
1fffddb6:	f000 f87a 	bl	0x1fffdeae
1fffddba:	e002      	b.n	0x1fffddc2
1fffddbc:	200f      	movs	r0, #15
1fffddbe:	7228      	strb	r0, [r5, #8]
1fffddc0:	7128      	strb	r0, [r5, #4]
1fffddc2:	2000      	movs	r0, #0
1fffddc4:	e8bd 81f6 	ldmia.w	sp!, {r1, r2, r4, r5, r6, r7, r8, pc}
1fffddc8:	b510      	push	{r4, lr}
1fffddca:	4a40      	ldr	r2, [pc, #256]	@ (0x1fffdecc)
1fffddcc:	7893      	ldrb	r3, [r2, #2]
1fffddce:	78d4      	ldrb	r4, [r2, #3]
1fffddd0:	493d      	ldr	r1, [pc, #244]	@ (0x1fffdec8)
1fffddd2:	eb14 2303 	adds.w	r3, r4, r3, lsl #8
1fffddd6:	60cb      	str	r3, [r1, #12]
1fffddd8:	79d3      	ldrb	r3, [r2, #7]
1fffddda:	7994      	ldrb	r4, [r2, #6]
1fffdddc:	6952      	ldr	r2, [r2, #20]
1fffddde:	eb14 2303 	adds.w	r3, r4, r3, lsl #8
1fffdde2:	2403      	movs	r4, #3
1fffdde4:	610b      	str	r3, [r1, #16]
1fffdde6:	720c      	strb	r4, [r1, #8]
1fffdde8:	710c      	strb	r4, [r1, #4]
1fffddea:	b928      	cbnz	r0, 0x1fffddf8
1fffddec:	493b      	ldr	r1, [pc, #236]	@ (0x1fffdedc)
1fffddee:	1a98      	subs	r0, r3, r2
1fffddf0:	6809      	ldr	r1, [r1, #0]
1fffddf2:	8208      	strh	r0, [r1, #16]
1fffddf4:	2000      	movs	r0, #0
1fffddf6:	bd10      	pop	{r4, pc}
1fffddf8:	483f      	ldr	r0, [pc, #252]	@ (0x1fffdef8)
1fffddfa:	b292      	uxth	r2, r2
1fffddfc:	1810      	adds	r0, r2, r0
1fffddfe:	bd10      	pop	{r4, pc}
1fffde00:	b928      	cbnz	r0, 0x1fffde0e
1fffde02:	4836      	ldr	r0, [pc, #216]	@ (0x1fffdedc)
1fffde04:	2101      	movs	r1, #1
1fffde06:	6800      	ldr	r0, [r0, #0]
1fffde08:	8201      	strh	r1, [r0, #16]
1fffde0a:	2000      	movs	r0, #0
1fffde0c:	4770      	bx	lr
1fffde0e:	483e      	ldr	r0, [pc, #248]	@ (0x1fffdf08)
1fffde10:	4770      	bx	lr
1fffde12:	0000      	movs	r0, r0
1fffde14:	b538      	push	{r3, r4, r5, lr}
1fffde16:	4d2c      	ldr	r5, [pc, #176]	@ (0x1fffdec8)
1fffde18:	4604      	mov	r4, r0
1fffde1a:	7a28      	ldrb	r0, [r5, #8]
1fffde1c:	2803      	cmp	r0, #3
1fffde1e:	d002      	beq.n	0x1fffde26
1fffde20:	2806      	cmp	r0, #6
1fffde22:	d018      	beq.n	0x1fffde56
1fffde24:	e01f      	b.n	0x1fffde66
1fffde26:	6928      	ldr	r0, [r5, #16]
1fffde28:	b188      	cbz	r0, 0x1fffde4e
1fffde2a:	2004      	movs	r0, #4
1fffde2c:	68e9      	ldr	r1, [r5, #12]
1fffde2e:	7228      	strb	r0, [r5, #8]
1fffde30:	7128      	strb	r0, [r5, #4]
1fffde32:	69a8      	ldr	r0, [r5, #24]
1fffde34:	2900      	cmp	r1, #0
1fffde36:	bf02      	ittt	eq
1fffde38:	492f      	ldreq	r1, [pc, #188]	@ (0x1fffdef8)
1fffde3a:	7809      	ldrbeq	r1, [r1, #0]
1fffde3c:	2941      	cmpeq	r1, #65	@ 0x41
1fffde3e:	bf07      	ittee	eq
1fffde40:	462a      	moveq	r2, r5
1fffde42:	2100      	moveq	r1, #0
1fffde44:	462a      	movne	r2, r5
1fffde46:	2101      	movne	r1, #1
1fffde48:	f000 f92e 	bl	0x1fffe0a8
1fffde4c:	e00b      	b.n	0x1fffde66
1fffde4e:	2005      	movs	r0, #5
1fffde50:	7228      	strb	r0, [r5, #8]
1fffde52:	7128      	strb	r0, [r5, #4]
1fffde54:	e007      	b.n	0x1fffde66
1fffde56:	6968      	ldr	r0, [r5, #20]
1fffde58:	2801      	cmp	r0, #1
1fffde5a:	d104      	bne.n	0x1fffde66
1fffde5c:	2007      	movs	r0, #7
1fffde5e:	7228      	strb	r0, [r5, #8]
1fffde60:	7128      	strb	r0, [r5, #4]
1fffde62:	2001      	movs	r0, #1
1fffde64:	7068      	strb	r0, [r5, #1]
1fffde66:	b92c      	cbnz	r4, 0x1fffde74
1fffde68:	481c      	ldr	r0, [pc, #112]	@ (0x1fffdedc)
1fffde6a:	2106      	movs	r1, #6
1fffde6c:	6800      	ldr	r0, [r0, #0]
1fffde6e:	8201      	strh	r1, [r0, #16]
1fffde70:	2000      	movs	r0, #0
1fffde72:	bd32      	pop	{r1, r4, r5, pc}
1fffde74:	4628      	mov	r0, r5
1fffde76:	bd32      	pop	{r1, r4, r5, pc}
1fffde78:	b510      	push	{r4, lr}
1fffde7a:	4c13      	ldr	r4, [pc, #76]	@ (0x1fffdec8)
1fffde7c:	2000      	movs	r0, #0
1fffde7e:	6160      	str	r0, [r4, #20]
1fffde80:	f000 fc6c 	bl	0x1fffe75c
1fffde84:	2801      	cmp	r0, #1
1fffde86:	d103      	bne.n	0x1fffde90
1fffde88:	2006      	movs	r0, #6
1fffde8a:	7220      	strb	r0, [r4, #8]
1fffde8c:	7120      	strb	r0, [r4, #4]
1fffde8e:	bd10      	pop	{r4, pc}
1fffde90:	2008      	movs	r0, #8
1fffde92:	7220      	strb	r0, [r4, #8]
1fffde94:	7120      	strb	r0, [r4, #4]
1fffde96:	f000 fc61 	bl	0x1fffe75c
1fffde9a:	2801      	cmp	r0, #1
1fffde9c:	bf0c      	ite	eq
1fffde9e:	f04f 6000 	moveq.w	r0, #134217728	@ 0x8000000
1fffdea2:	69a0      	ldrne	r0, [r4, #24]
1fffdea4:	61e0      	str	r0, [r4, #28]
1fffdea6:	4806      	ldr	r0, [pc, #24]	@ (0x1fffdec0)
1fffdea8:	2100      	movs	r1, #0
1fffdeaa:	6001      	str	r1, [r0, #0]
1fffdeac:	bd10      	pop	{r4, pc}
1fffdeae:	4906      	ldr	r1, [pc, #24]	@ (0x1fffdec8)
1fffdeb0:	220a      	movs	r2, #10
1fffdeb2:	7008      	strb	r0, [r1, #0]
1fffdeb4:	2000      	movs	r0, #0
1fffdeb6:	720a      	strb	r2, [r1, #8]
1fffdeb8:	710a      	strb	r2, [r1, #4]
1fffdeba:	6108      	str	r0, [r1, #16]
1fffdebc:	60c8      	str	r0, [r1, #12]
1fffdebe:	4770      	bx	lr
1fffdec0:	01a0      	lsls	r0, r4, #6
1fffdec2:	2000      	movs	r0, #0
1fffdec4:	3000      	adds	r0, #0
1fffdec6:	4000      	ands	r0, r0
1fffdec8:	0168      	lsls	r0, r5, #5
1fffdeca:	2000      	movs	r0, #0
1fffdecc:	0de4      	lsrs	r4, r4, #23
1fffdece:	2000      	movs	r0, #0
1fffded0:	5c40      	ldrb	r0, [r0, r1]
1fffded2:	4000      	ands	r0, r0
1fffded4:	0e50      	lsrs	r0, r2, #25
1fffded6:	2000      	movs	r0, #0
1fffded8:	0120      	lsls	r0, r4, #4
1fffdeda:	2000      	movs	r0, #0
1fffdedc:	0e04      	lsrs	r4, r0, #24
1fffdede:	2000      	movs	r0, #0
1fffdee0:	5c00      	ldrb	r0, [r0, r0]
1fffdee2:	4000      	ands	r0, r0
1fffdee4:	6008      	str	r0, [r1, #0]
1fffdee6:	4000      	ands	r0, r0
1fffdee8:	600c      	str	r4, [r1, #0]
1fffdeea:	4000      	ands	r0, r0
1fffdeec:	0098      	lsls	r0, r3, #2
1fffdeee:	2000      	movs	r0, #0
1fffdef0:	6000      	str	r0, [r0, #0]
1fffdef2:	4000      	ands	r0, r0
1fffdef4:	6004      	str	r4, [r0, #0]
1fffdef6:	4000      	ands	r0, r0
1fffdef8:	01e4      	lsls	r4, r4, #7
1fffdefa:	2000      	movs	r0, #0
1fffdefc:	01cc      	lsls	r4, r1, #7
1fffdefe:	2000      	movs	r0, #0
1fffdf00:	01d4      	lsls	r4, r2, #7
1fffdf02:	2000      	movs	r0, #0
1fffdf04:	00c8      	lsls	r0, r1, #3
1fffdf06:	2000      	movs	r0, #0
1fffdf08:	0170      	lsls	r0, r6, #5
1fffdf0a:	2000      	movs	r0, #0
1fffdf0c:	b530      	push	{r4, r5, lr}
1fffdf0e:	4820      	ldr	r0, [pc, #128]	@ (0x1fffdf90)
1fffdf10:	2101      	movs	r1, #1
1fffdf12:	7001      	strb	r1, [r0, #0]
1fffdf14:	f04f 4190 	mov.w	r1, #1207959552	@ 0x48000000
1fffdf18:	680a      	ldr	r2, [r1, #0]
1fffdf1a:	f44f 3470 	mov.w	r4, #245760	@ 0x3c000
1fffdf1e:	f042 7280 	orr.w	r2, r2, #16777216	@ 0x1000000
1fffdf22:	600a      	str	r2, [r1, #0]
1fffdf24:	888a      	ldrh	r2, [r1, #4]
1fffdf26:	f442 5280 	orr.w	r2, r2, #4096	@ 0x1000
1fffdf2a:	808a      	strh	r2, [r1, #4]
1fffdf2c:	4a19      	ldr	r2, [pc, #100]	@ (0x1fffdf94)
1fffdf2e:	8813      	ldrh	r3, [r2, #0]
1fffdf30:	f443 5380 	orr.w	r3, r3, #4096	@ 0x1000
1fffdf34:	8013      	strh	r3, [r2, #0]
1fffdf36:	4b18      	ldr	r3, [pc, #96]	@ (0x1fffdf98)
1fffdf38:	601c      	str	r4, [r3, #0]
1fffdf3a:	681c      	ldr	r4, [r3, #0]
1fffdf3c:	1e65      	subs	r5, r4, #1
1fffdf3e:	601d      	str	r5, [r3, #0]
1fffdf40:	2c02      	cmp	r4, #2
1fffdf42:	d2fa      	bcs.n	0x1fffdf3a
1fffdf44:	680b      	ldr	r3, [r1, #0]
1fffdf46:	f64e 74ff 	movw	r4, #61439	@ 0xefff
1fffdf4a:	f023 7380 	bic.w	r3, r3, #16777216	@ 0x1000000
1fffdf4e:	600b      	str	r3, [r1, #0]
1fffdf50:	888b      	ldrh	r3, [r1, #4]
1fffdf52:	4023      	ands	r3, r4
1fffdf54:	808b      	strh	r3, [r1, #4]
1fffdf56:	8813      	ldrh	r3, [r2, #0]
1fffdf58:	4023      	ands	r3, r4
1fffdf5a:	8013      	strh	r3, [r2, #0]
1fffdf5c:	680a      	ldr	r2, [r1, #0]
1fffdf5e:	f042 7220 	orr.w	r2, r2, #41943040	@ 0x2800000
1fffdf62:	600a      	str	r2, [r1, #0]
1fffdf64:	688a      	ldr	r2, [r1, #8]
1fffdf66:	f042 7270 	orr.w	r2, r2, #62914560	@ 0x3c00000
1fffdf6a:	608a      	str	r2, [r1, #8]
1fffdf6c:	6a4a      	ldr	r2, [r1, #36]	@ 0x24
1fffdf6e:	f442 226e 	orr.w	r2, r2, #974848	@ 0xee000
1fffdf72:	624a      	str	r2, [r1, #36]	@ 0x24
1fffdf74:	2182      	movs	r1, #130	@ 0x82
1fffdf76:	7181      	strb	r1, [r0, #6]
1fffdf78:	bd30      	pop	{r4, r5, pc}
1fffdf7a:	4808      	ldr	r0, [pc, #32]	@ (0x1fffdf9c)
1fffdf7c:	2100      	movs	r1, #0
1fffdf7e:	6800      	ldr	r0, [r0, #0]
1fffdf80:	4807      	ldr	r0, [pc, #28]	@ (0x1fffdfa0)
1fffdf82:	7001      	strb	r1, [r0, #0]
1fffdf84:	4807      	ldr	r0, [pc, #28]	@ (0x1fffdfa4)
1fffdf86:	f44f 1180 	mov.w	r1, #1048576	@ 0x100000
1fffdf8a:	6001      	str	r1, [r0, #0]
1fffdf8c:	4770      	bx	lr
1fffdf8e:	0000      	movs	r0, r0
1fffdf90:	1018      	asrs	r0, r3, #32
1fffdf92:	4002      	ands	r2, r0
1fffdf94:	1428      	asrs	r0, r5, #16
1fffdf96:	4800      	ldr	r0, [pc, #0]	@ (0x1fffdf98)
1fffdf98:	0e44      	lsrs	r4, r0, #25
1fffdf9a:	2000      	movs	r0, #0
1fffdf9c:	ed0c e000 	stc	0, cr14, [ip, #-0]
1fffdfa0:	e414      	b.n	0x1fffd7cc
1fffdfa2:	e000      	b.n	0x1fffdfa6
1fffdfa4:	e100      	b.n	0x1fffe1a8
1fffdfa6:	e000      	b.n	0x1fffdfaa
1fffdfa8:	b538      	push	{r3, r4, r5, lr}
1fffdfaa:	4801      	ldr	r0, [pc, #4]	@ (0x1fffdfb0)
1fffdfac:	4d01      	ldr	r5, [pc, #4]	@ (0x1fffdfb4)
1fffdfae:	e003      	b.n	0x1fffdfb8
1fffdfb0:	f7ac 1fff 			@ <UNDEFINED> instruction: 0xf7ac1fff
1fffdfb4:	0e0c      	lsrs	r4, r1, #24
1fffdfb6:	2000      	movs	r0, #0
1fffdfb8:	6803      	ldr	r3, [r0, #0]
1fffdfba:	6884      	ldr	r4, [r0, #8]
1fffdfbc:	201a      	movs	r0, #26
1fffdfbe:	7028      	strb	r0, [r5, #0]
1fffdfc0:	2003      	movs	r0, #3
1fffdfc2:	7068      	strb	r0, [r5, #1]
1fffdfc4:	2208      	movs	r2, #8
1fffdfc6:	1ca9      	adds	r1, r5, #2
1fffdfc8:	18e0      	adds	r0, r4, r3
1fffdfca:	f000 f806 	bl	0x1fffdfda
1fffdfce:	f105 0112 	add.w	r1, r5, #18
1fffdfd2:	4620      	mov	r0, r4
1fffdfd4:	e8bd 4038 	ldmia.w	sp!, {r3, r4, r5, lr}
1fffdfd8:	2204      	movs	r2, #4
1fffdfda:	b530      	push	{r4, r5, lr}
1fffdfdc:	2300      	movs	r3, #0
1fffdfde:	2500      	movs	r5, #0
1fffdfe0:	e006      	b.n	0x1fffdff0
1fffdfe2:	f801 4013 	strb.w	r4, [r1, r3, lsl #1]
1fffdfe6:	eb01 0443 	add.w	r4, r1, r3, lsl #1
1fffdfea:	0100      	lsls	r0, r0, #4
1fffdfec:	7065      	strb	r5, [r4, #1]
1fffdfee:	1c5b      	adds	r3, r3, #1
1fffdff0:	4293      	cmp	r3, r2
1fffdff2:	da05      	bge.n	0x1fffe000
1fffdff4:	0f04      	lsrs	r4, r0, #28
1fffdff6:	2c0a      	cmp	r4, #10
1fffdff8:	bf34      	ite	cc
1fffdffa:	3430      	addcc	r4, #48	@ 0x30
1fffdffc:	3437      	addcs	r4, #55	@ 0x37
1fffdffe:	e7f0      	b.n	0x1fffdfe2
1fffe000:	bd30      	pop	{r4, r5, pc}
1fffe002:	b410      	push	{r4}
1fffe004:	f850 1b04 	ldr.w	r1, [r0], #4
1fffe008:	b181      	cbz	r1, 0x1fffe02c
1fffe00a:	6802      	ldr	r2, [r0, #0]
1fffe00c:	1812      	adds	r2, r2, r0
1fffe00e:	1d00      	adds	r0, r0, #4
1fffe010:	f850 3b04 	ldr.w	r3, [r0], #4
1fffe014:	07dc      	lsls	r4, r3, #31
1fffe016:	bf44      	itt	mi
1fffe018:	f1a9 0401 	submi.w	r4, r9, #1
1fffe01c:	18e3      	addmi	r3, r4, r3
1fffe01e:	f852 4b04 	ldr.w	r4, [r2], #4
1fffe022:	f843 4b04 	str.w	r4, [r3], #4
1fffe026:	1f09      	subs	r1, r1, #4
1fffe028:	d1f9      	bne.n	0x1fffe01e
1fffe02a:	e7eb      	b.n	0x1fffe004
1fffe02c:	bc10      	pop	{r4}
1fffe02e:	4770      	bx	lr
1fffe030:	4803      	ldr	r0, [pc, #12]	@ (0x1fffe040)
1fffe032:	2102      	movs	r1, #2
1fffe034:	7201      	strb	r1, [r0, #8]
1fffe036:	4903      	ldr	r1, [pc, #12]	@ (0x1fffe044)
1fffe038:	6200      	str	r0, [r0, #32]
1fffe03a:	6241      	str	r1, [r0, #36]	@ 0x24
1fffe03c:	6808      	ldr	r0, [r1, #0]
1fffe03e:	4700      	bx	r0
1fffe040:	0de4      	lsrs	r4, r4, #23
1fffe042:	2000      	movs	r0, #0
1fffe044:	0098      	lsls	r0, r3, #2
1fffe046:	2000      	movs	r0, #0
1fffe048:	b580      	push	{r7, lr}
1fffe04a:	f000 fe4e 	bl	0x1fffecea
1fffe04e:	2000      	movs	r0, #0
1fffe050:	bd02      	pop	{r1, pc}
1fffe052:	f000 be4f 	b.w	0x1fffecf4
1fffe056:	b538      	push	{r3, r4, r5, lr}
1fffe058:	4604      	mov	r4, r0
1fffe05a:	460d      	mov	r5, r1
1fffe05c:	f000 fa16 	bl	0x1fffe48c
1fffe060:	f88d 0000 	strb.w	r0, [sp]
1fffe064:	f89d 0000 	ldrb.w	r0, [sp]
1fffe068:	2801      	cmp	r0, #1
1fffe06a:	bf1c      	itt	ne
1fffe06c:	f89d 0000 	ldrbne.w	r0, [sp]
1fffe070:	2805      	cmpne	r0, #5
1fffe072:	d101      	bne.n	0x1fffe078
1fffe074:	2001      	movs	r0, #1
1fffe076:	bd32      	pop	{r1, r4, r5, pc}
1fffe078:	462a      	mov	r2, r5
1fffe07a:	4908      	ldr	r1, [pc, #32]	@ (0x1fffe09c)
1fffe07c:	4620      	mov	r0, r4
1fffe07e:	f000 fa42 	bl	0x1fffe506
1fffe082:	f89d 0000 	ldrb.w	r0, [sp]
1fffe086:	2804      	cmp	r0, #4
1fffe088:	bf08      	it	eq
1fffe08a:	f000 fb88 	bleq	0x1fffe79e
1fffe08e:	2000      	movs	r0, #0
1fffe090:	bd32      	pop	{r1, r4, r5, pc}
1fffe092:	4a03      	ldr	r2, [pc, #12]	@ (0x1fffe0a0)
1fffe094:	4b03      	ldr	r3, [pc, #12]	@ (0x1fffe0a4)
1fffe096:	6013      	str	r3, [r2, #0]
1fffe098:	f000 be31 	b.w	0x1fffecfe
1fffe09c:	01e4      	lsls	r4, r4, #7
1fffe09e:	2000      	movs	r0, #0
1fffe0a0:	0e40      	lsrs	r0, r0, #25
1fffe0a2:	2000      	movs	r0, #0
1fffe0a4:	ecff 1fff 	ldcl	15, cr1, [pc], #1020	@ 0x1fffe4a4
1fffe0a8:	b510      	push	{r4, lr}
1fffe0aa:	4614      	mov	r4, r2
1fffe0ac:	b131      	cbz	r1, 0x1fffe0bc
1fffe0ae:	f000 f9ed 	bl	0x1fffe48c
1fffe0b2:	2802      	cmp	r0, #2
1fffe0b4:	bf14      	ite	ne
1fffe0b6:	200a      	movne	r0, #10
1fffe0b8:	2048      	moveq	r0, #72	@ 0x48
1fffe0ba:	e000      	b.n	0x1fffe0be
1fffe0bc:	2028      	movs	r0, #40	@ 0x28
1fffe0be:	7060      	strb	r0, [r4, #1]
1fffe0c0:	2000      	movs	r0, #0
1fffe0c2:	70a0      	strb	r0, [r4, #2]
1fffe0c4:	70e0      	strb	r0, [r4, #3]
1fffe0c6:	bd10      	pop	{r4, pc}
1fffe0c8:	b580      	push	{r7, lr}
1fffe0ca:	f000 f80f 	bl	0x1fffe0ec
1fffe0ce:	48ab      	ldr	r0, [pc, #684]	@ (0x1fffe37c)
1fffe0d0:	f04f 31ff 	mov.w	r1, #4294967295	@ 0xffffffff
1fffe0d4:	6001      	str	r1, [r0, #0]
1fffe0d6:	2200      	movs	r2, #0
1fffe0d8:	6002      	str	r2, [r0, #0]
1fffe0da:	6041      	str	r1, [r0, #4]
1fffe0dc:	6042      	str	r2, [r0, #4]
1fffe0de:	61c1      	str	r1, [r0, #28]
1fffe0e0:	61c2      	str	r2, [r0, #28]
1fffe0e2:	60c2      	str	r2, [r0, #12]
1fffe0e4:	6102      	str	r2, [r0, #16]
1fffe0e6:	2114      	movs	r1, #20
1fffe0e8:	6081      	str	r1, [r0, #8]
1fffe0ea:	bd01      	pop	{r0, pc}
1fffe0ec:	48a4      	ldr	r0, [pc, #656]	@ (0x1fffe380)
1fffe0ee:	2200      	movs	r2, #0
1fffe0f0:	6801      	ldr	r1, [r0, #0]
1fffe0f2:	f041 0101 	orr.w	r1, r1, #1
1fffe0f6:	6001      	str	r1, [r0, #0]
1fffe0f8:	2100      	movs	r1, #0
1fffe0fa:	8081      	strh	r1, [r0, #4]
1fffe0fc:	71c1      	strb	r1, [r0, #7]
1fffe0fe:	8041      	strh	r1, [r0, #2]
1fffe100:	7181      	strb	r1, [r0, #6]
1fffe102:	49a2      	ldr	r1, [pc, #648]	@ (0x1fffe38c)
1fffe104:	700a      	strb	r2, [r1, #0]
1fffe106:	604a      	str	r2, [r1, #4]
1fffe108:	6082      	str	r2, [r0, #8]
1fffe10a:	4770      	bx	lr
1fffe10c:	b510      	push	{r4, lr}
1fffe10e:	2400      	movs	r4, #0
1fffe110:	f7ff ffda 	bl	0x1fffe0c8
1fffe114:	489a      	ldr	r0, [pc, #616]	@ (0x1fffe380)
1fffe116:	6801      	ldr	r1, [r0, #0]
1fffe118:	f041 0101 	orr.w	r1, r1, #1
1fffe11c:	6001      	str	r1, [r0, #0]
1fffe11e:	6801      	ldr	r1, [r0, #0]
1fffe120:	1c64      	adds	r4, r4, #1
1fffe122:	0789      	lsls	r1, r1, #30
1fffe124:	d402      	bmi.n	0x1fffe12c
1fffe126:	f5b4 6fa0 	cmp.w	r4, #1280	@ 0x500
1fffe12a:	d1f8      	bne.n	0x1fffe11e
1fffe12c:	6801      	ldr	r1, [r0, #0]
1fffe12e:	0789      	lsls	r1, r1, #30
1fffe130:	d51c      	bpl.n	0x1fffe16c
1fffe132:	4994      	ldr	r1, [pc, #592]	@ (0x1fffe384)
1fffe134:	2211      	movs	r2, #17
1fffe136:	600a      	str	r2, [r1, #0]
1fffe138:	4995      	ldr	r1, [pc, #596]	@ (0x1fffe390)
1fffe13a:	4a93      	ldr	r2, [pc, #588]	@ (0x1fffe388)
1fffe13c:	6041      	str	r1, [r0, #4]
1fffe13e:	2101      	movs	r1, #1
1fffe140:	70c1      	strb	r1, [r0, #3]
1fffe142:	2100      	movs	r1, #0
1fffe144:	6803      	ldr	r3, [r0, #0]
1fffe146:	019b      	lsls	r3, r3, #6
1fffe148:	d403      	bmi.n	0x1fffe152
1fffe14a:	460b      	mov	r3, r1
1fffe14c:	1c59      	adds	r1, r3, #1
1fffe14e:	4293      	cmp	r3, r2
1fffe150:	d1f8      	bne.n	0x1fffe144
1fffe152:	2102      	movs	r1, #2
1fffe154:	7101      	strb	r1, [r0, #4]
1fffe156:	2400      	movs	r4, #0
1fffe158:	6841      	ldr	r1, [r0, #4]
1fffe15a:	f001 010c 	and.w	r1, r1, #12
1fffe15e:	2908      	cmp	r1, #8
1fffe160:	d005      	beq.n	0x1fffe16e
1fffe162:	4621      	mov	r1, r4
1fffe164:	1c4c      	adds	r4, r1, #1
1fffe166:	4291      	cmp	r1, r2
1fffe168:	d1f6      	bne.n	0x1fffe158
1fffe16a:	bd10      	pop	{r4, pc}
1fffe16c:	e000      	b.n	0x1fffe170
1fffe16e:	bd10      	pop	{r4, pc}
1fffe170:	e8bd 4010 	ldmia.w	sp!, {r4, lr}
1fffe174:	f000 bdcc 	b.w	0x1fffed10
1fffe178:	b5f0      	push	{r4, r5, r6, r7, lr}
1fffe17a:	4c83      	ldr	r4, [pc, #524]	@ (0x1fffe388)
1fffe17c:	b089      	sub	sp, #36	@ 0x24
1fffe17e:	9400      	str	r4, [sp, #0]
1fffe180:	2000      	movs	r0, #0
1fffe182:	f20f 2130 	addw	r1, pc, #560	@ 0x230
1fffe186:	9001      	str	r0, [sp, #4]
1fffe188:	c92c      	ldmia	r1!, {r2, r3, r5}
1fffe18a:	a805      	add	r0, sp, #20
1fffe18c:	c02c      	stmia	r0!, {r2, r3, r5}
1fffe18e:	f20f 2130 	addw	r1, pc, #560	@ 0x230
1fffe192:	a802      	add	r0, sp, #8
1fffe194:	c92c      	ldmia	r1!, {r2, r3, r5}
1fffe196:	2700      	movs	r7, #0
1fffe198:	c02c      	stmia	r0!, {r2, r3, r5}
1fffe19a:	4e7e      	ldr	r6, [pc, #504]	@ (0x1fffe394)
1fffe19c:	f000 f865 	bl	0x1fffe26a
1fffe1a0:	6030      	str	r0, [r6, #0]
1fffe1a2:	6830      	ldr	r0, [r6, #0]
1fffe1a4:	a905      	add	r1, sp, #20
1fffe1a6:	5c79      	ldrb	r1, [r7, r1]
1fffe1a8:	4288      	cmp	r0, r1
1fffe1aa:	d002      	beq.n	0x1fffe1b2
1fffe1ac:	1c7f      	adds	r7, r7, #1
1fffe1ae:	2f09      	cmp	r7, #9
1fffe1b0:	dbf7      	blt.n	0x1fffe1a2
1fffe1b2:	4d73      	ldr	r5, [pc, #460]	@ (0x1fffe380)
1fffe1b4:	2f09      	cmp	r7, #9
1fffe1b6:	d105      	bne.n	0x1fffe1c4
1fffe1b8:	2000      	movs	r0, #0
1fffe1ba:	6030      	str	r0, [r6, #0]
1fffe1bc:	70a8      	strb	r0, [r5, #2]
1fffe1be:	2002      	movs	r0, #2
1fffe1c0:	73a8      	strb	r0, [r5, #14]
1fffe1c2:	e050      	b.n	0x1fffe266
1fffe1c4:	a802      	add	r0, sp, #8
1fffe1c6:	5c38      	ldrb	r0, [r7, r0]
1fffe1c8:	2f01      	cmp	r7, #1
1fffe1ca:	6030      	str	r0, [r6, #0]
1fffe1cc:	bf16      	itet	ne
1fffe1ce:	2f04      	cmpne	r7, #4
1fffe1d0:	2003      	moveq	r0, #3
1fffe1d2:	2001      	movne	r0, #1
1fffe1d4:	6070      	str	r0, [r6, #4]
1fffe1d6:	f7ff ff89 	bl	0x1fffe0ec
1fffe1da:	2009      	movs	r0, #9
1fffe1dc:	70a8      	strb	r0, [r5, #2]
1fffe1de:	6828      	ldr	r0, [r5, #0]
1fffe1e0:	f400 3000 	and.w	r0, r0, #131072	@ 0x20000
1fffe1e4:	9001      	str	r0, [sp, #4]
1fffe1e6:	9800      	ldr	r0, [sp, #0]
1fffe1e8:	1c40      	adds	r0, r0, #1
1fffe1ea:	9000      	str	r0, [sp, #0]
1fffe1ec:	9801      	ldr	r0, [sp, #4]
1fffe1ee:	b918      	cbnz	r0, 0x1fffe1f8
1fffe1f0:	9800      	ldr	r0, [sp, #0]
1fffe1f2:	f5b0 6fa0 	cmp.w	r0, #1280	@ 0x500
1fffe1f6:	d1f2      	bne.n	0x1fffe1de
1fffe1f8:	6828      	ldr	r0, [r5, #0]
1fffe1fa:	0c40      	lsrs	r0, r0, #17
1fffe1fc:	f000 0001 	and.w	r0, r0, #1
1fffe200:	9001      	str	r0, [sp, #4]
1fffe202:	9801      	ldr	r0, [sp, #4]
1fffe204:	2801      	cmp	r0, #1
1fffe206:	d12c      	bne.n	0x1fffe262
1fffe208:	485e      	ldr	r0, [pc, #376]	@ (0x1fffe384)
1fffe20a:	2111      	movs	r1, #17
1fffe20c:	6001      	str	r1, [r0, #0]
1fffe20e:	6830      	ldr	r0, [r6, #0]
1fffe210:	495e      	ldr	r1, [pc, #376]	@ (0x1fffe38c)
1fffe212:	1e80      	subs	r0, r0, #2
1fffe214:	0480      	lsls	r0, r0, #18
1fffe216:	f420 0043 	bic.w	r0, r0, #12779520	@ 0xc30000
1fffe21a:	f440 0080 	orr.w	r0, r0, #4194304	@ 0x400000
1fffe21e:	f440 3082 	orr.w	r0, r0, #66560	@ 0x10400
1fffe222:	6068      	str	r0, [r5, #4]
1fffe224:	6870      	ldr	r0, [r6, #4]
1fffe226:	1e40      	subs	r0, r0, #1
1fffe228:	7008      	strb	r0, [r1, #0]
1fffe22a:	2001      	movs	r0, #1
1fffe22c:	70e8      	strb	r0, [r5, #3]
1fffe22e:	2000      	movs	r0, #0
1fffe230:	e001      	b.n	0x1fffe236
1fffe232:	9800      	ldr	r0, [sp, #0]
1fffe234:	1c40      	adds	r0, r0, #1
1fffe236:	9000      	str	r0, [sp, #0]
1fffe238:	6828      	ldr	r0, [r5, #0]
1fffe23a:	0180      	lsls	r0, r0, #6
1fffe23c:	d402      	bmi.n	0x1fffe244
1fffe23e:	9800      	ldr	r0, [sp, #0]
1fffe240:	42a0      	cmp	r0, r4
1fffe242:	d1f6      	bne.n	0x1fffe232
1fffe244:	2002      	movs	r0, #2
1fffe246:	7128      	strb	r0, [r5, #4]
1fffe248:	2000      	movs	r0, #0
1fffe24a:	9000      	str	r0, [sp, #0]
1fffe24c:	6868      	ldr	r0, [r5, #4]
1fffe24e:	f000 000c 	and.w	r0, r0, #12
1fffe252:	2808      	cmp	r0, #8
1fffe254:	bf1f      	itttt	ne
1fffe256:	9800      	ldrne	r0, [sp, #0]
1fffe258:	42a0      	cmpne	r0, r4
1fffe25a:	9800      	ldrne	r0, [sp, #0]
1fffe25c:	1c40      	addne	r0, r0, #1
1fffe25e:	d1f4      	bne.n	0x1fffe24a
1fffe260:	e001      	b.n	0x1fffe266
1fffe262:	f000 fd55 	bl	0x1fffed10
1fffe266:	b009      	add	sp, #36	@ 0x24
1fffe268:	bdf0      	pop	{r4, r5, r6, r7, pc}
1fffe26a:	b530      	push	{r4, r5, lr}
1fffe26c:	4944      	ldr	r1, [pc, #272]	@ (0x1fffe380)
1fffe26e:	2009      	movs	r0, #9
1fffe270:	7088      	strb	r0, [r1, #2]
1fffe272:	4849      	ldr	r0, [pc, #292]	@ (0x1fffe398)
1fffe274:	f44f 52f0 	mov.w	r2, #7680	@ 0x1e00
1fffe278:	e001      	b.n	0x1fffe27e
1fffe27a:	6902      	ldr	r2, [r0, #16]
1fffe27c:	1e52      	subs	r2, r2, #1
1fffe27e:	6102      	str	r2, [r0, #16]
1fffe280:	680a      	ldr	r2, [r1, #0]
1fffe282:	0392      	lsls	r2, r2, #14
1fffe284:	d402      	bmi.n	0x1fffe28c
1fffe286:	6902      	ldr	r2, [r0, #16]
1fffe288:	2a00      	cmp	r2, #0
1fffe28a:	d1f6      	bne.n	0x1fffe27a
1fffe28c:	6902      	ldr	r2, [r0, #16]
1fffe28e:	2a00      	cmp	r2, #0
1fffe290:	d04e      	beq.n	0x1fffe330
1fffe292:	2202      	movs	r2, #2
1fffe294:	768a      	strb	r2, [r1, #26]
1fffe296:	4941      	ldr	r1, [pc, #260]	@ (0x1fffe39c)
1fffe298:	f64f 43ff 	movw	r3, #64767	@ 0xfcff
1fffe29c:	800a      	strh	r2, [r1, #0]
1fffe29e:	4940      	ldr	r1, [pc, #256]	@ (0x1fffe3a0)
1fffe2a0:	f64f 750c 	movw	r5, #65292	@ 0xff0c
1fffe2a4:	880a      	ldrh	r2, [r1, #0]
1fffe2a6:	401a      	ands	r2, r3
1fffe2a8:	800a      	strh	r2, [r1, #0]
1fffe2aa:	f64f 72ff 	movw	r2, #65535	@ 0xffff
1fffe2ae:	62ca      	str	r2, [r1, #44]	@ 0x2c
1fffe2b0:	2300      	movs	r3, #0
1fffe2b2:	850b      	strh	r3, [r1, #40]	@ 0x28
1fffe2b4:	2301      	movs	r3, #1
1fffe2b6:	614b      	str	r3, [r1, #20]
1fffe2b8:	6a0b      	ldr	r3, [r1, #32]
1fffe2ba:	085b      	lsrs	r3, r3, #1
1fffe2bc:	005b      	lsls	r3, r3, #1
1fffe2be:	620b      	str	r3, [r1, #32]
1fffe2c0:	698b      	ldr	r3, [r1, #24]
1fffe2c2:	6a0c      	ldr	r4, [r1, #32]
1fffe2c4:	402b      	ands	r3, r5
1fffe2c6:	f64f 75f5 	movw	r5, #65525	@ 0xfff5
1fffe2ca:	402c      	ands	r4, r5
1fffe2cc:	f043 0301 	orr.w	r3, r3, #1
1fffe2d0:	f044 0401 	orr.w	r4, r4, #1
1fffe2d4:	8083      	strh	r3, [r0, #4]
1fffe2d6:	80c4      	strh	r4, [r0, #6]
1fffe2d8:	618b      	str	r3, [r1, #24]
1fffe2da:	620c      	str	r4, [r1, #32]
1fffe2dc:	698b      	ldr	r3, [r1, #24]
1fffe2de:	f023 030c 	bic.w	r3, r3, #12
1fffe2e2:	618b      	str	r3, [r1, #24]
1fffe2e4:	698b      	ldr	r3, [r1, #24]
1fffe2e6:	f043 030c 	orr.w	r3, r3, #12
1fffe2ea:	618b      	str	r3, [r1, #24]
1fffe2ec:	880b      	ldrh	r3, [r1, #0]
1fffe2ee:	f043 0301 	orr.w	r3, r3, #1
1fffe2f2:	800b      	strh	r3, [r1, #0]
1fffe2f4:	2300      	movs	r3, #0
1fffe2f6:	610b      	str	r3, [r1, #16]
1fffe2f8:	610b      	str	r3, [r1, #16]
1fffe2fa:	4b2a      	ldr	r3, [pc, #168]	@ (0x1fffe3a4)
1fffe2fc:	6103      	str	r3, [r0, #16]
1fffe2fe:	690c      	ldr	r4, [r1, #16]
1fffe300:	07a4      	lsls	r4, r4, #30
1fffe302:	d404      	bmi.n	0x1fffe30e
1fffe304:	6904      	ldr	r4, [r0, #16]
1fffe306:	1e65      	subs	r5, r4, #1
1fffe308:	6105      	str	r5, [r0, #16]
1fffe30a:	2c00      	cmp	r4, #0
1fffe30c:	d1f7      	bne.n	0x1fffe2fe
1fffe30e:	6904      	ldr	r4, [r0, #16]
1fffe310:	b174      	cbz	r4, 0x1fffe330
1fffe312:	6b4c      	ldr	r4, [r1, #52]	@ 0x34
1fffe314:	8004      	strh	r4, [r0, #0]
1fffe316:	2400      	movs	r4, #0
1fffe318:	610c      	str	r4, [r1, #16]
1fffe31a:	6103      	str	r3, [r0, #16]
1fffe31c:	690b      	ldr	r3, [r1, #16]
1fffe31e:	079b      	lsls	r3, r3, #30
1fffe320:	d404      	bmi.n	0x1fffe32c
1fffe322:	6903      	ldr	r3, [r0, #16]
1fffe324:	1e5c      	subs	r4, r3, #1
1fffe326:	6104      	str	r4, [r0, #16]
1fffe328:	2b00      	cmp	r3, #0
1fffe32a:	d1f7      	bne.n	0x1fffe31c
1fffe32c:	6903      	ldr	r3, [r0, #16]
1fffe32e:	b90b      	cbnz	r3, 0x1fffe334
1fffe330:	2000      	movs	r0, #0
1fffe332:	bd30      	pop	{r4, r5, pc}
1fffe334:	6b4b      	ldr	r3, [r1, #52]	@ 0x34
1fffe336:	8043      	strh	r3, [r0, #2]
1fffe338:	2300      	movs	r3, #0
1fffe33a:	610b      	str	r3, [r1, #16]
1fffe33c:	8801      	ldrh	r1, [r0, #0]
1fffe33e:	8843      	ldrh	r3, [r0, #2]
1fffe340:	4299      	cmp	r1, r3
1fffe342:	8841      	ldrh	r1, [r0, #2]
1fffe344:	bf3c      	itt	cc
1fffe346:	8802      	ldrhcc	r2, [r0, #0]
1fffe348:	1a89      	subcc	r1, r1, r2
1fffe34a:	d309      	bcc.n	0x1fffe360
1fffe34c:	8803      	ldrh	r3, [r0, #0]
1fffe34e:	4299      	cmp	r1, r3
1fffe350:	d205      	bcs.n	0x1fffe35e
1fffe352:	8801      	ldrh	r1, [r0, #0]
1fffe354:	1a51      	subs	r1, r2, r1
1fffe356:	8842      	ldrh	r2, [r0, #2]
1fffe358:	fa11 f182 	uxtah	r1, r1, r2
1fffe35c:	e000      	b.n	0x1fffe360
1fffe35e:	2100      	movs	r1, #0
1fffe360:	6081      	str	r1, [r0, #8]
1fffe362:	4911      	ldr	r1, [pc, #68]	@ (0x1fffe3a8)
1fffe364:	6882      	ldr	r2, [r0, #8]
1fffe366:	fbb1 f1f2 	udiv	r1, r1, r2
1fffe36a:	4a10      	ldr	r2, [pc, #64]	@ (0x1fffe3ac)
1fffe36c:	eb02 1141 	add.w	r1, r2, r1, lsl #5
1fffe370:	4a0f      	ldr	r2, [pc, #60]	@ (0x1fffe3b0)
1fffe372:	fbb1 f1f2 	udiv	r1, r1, r2
1fffe376:	60c1      	str	r1, [r0, #12]
1fffe378:	68c0      	ldr	r0, [r0, #12]
1fffe37a:	bd30      	pop	{r4, r5, pc}
1fffe37c:	100c      	asrs	r4, r1, #32
1fffe37e:	4002      	ands	r2, r0
1fffe380:	1000      	asrs	r0, r0, #32
1fffe382:	4002      	ands	r2, r0
1fffe384:	2000      	movs	r0, #0
1fffe386:	4002      	ands	r2, r0
1fffe388:	ffff 0001 	vaddl.u<illegal width 64>	q8, d15, d1
1fffe38c:	102c      	asrs	r4, r5, #32
1fffe38e:	4002      	ands	r2, r0
1fffe390:	0400      	lsls	r0, r0, #16
1fffe392:	0068      	lsls	r0, r5, #1
1fffe394:	0e30      	lsrs	r0, r6, #24
1fffe396:	2000      	movs	r0, #0
1fffe398:	01a4      	lsls	r4, r4, #6
1fffe39a:	2000      	movs	r0, #0
1fffe39c:	4450      	add	r0, sl
1fffe39e:	4001      	ands	r1, r0
1fffe3a0:	4400      	add	r0, r0
1fffe3a2:	4001      	ands	r1, r0
1fffe3a4:	fffa 000b 	vaddl.u<illegal width 64>	q8, d10, d11
1fffe3a8:	6000      	str	r0, [r0, #0]
1fffe3aa:	16e3      	asrs	r3, r4, #27
1fffe3ac:	a120      	add	r1, pc, #128	@ (adr r1, 0x1fffe430)
1fffe3ae:	0007      	movs	r7, r0
1fffe3b0:	4240      	negs	r0, r0
1fffe3b2:	000f      	movs	r7, r1
1fffe3b4:	1218      	asrs	r0, r3, #8
1fffe3b6:	0c10      	lsrs	r0, r2, #16
1fffe3b8:	0809      	lsrs	r1, r1, #32
1fffe3ba:	0406      	lsls	r6, r0, #16
1fffe3bc:	0003      	movs	r3, r0
1fffe3be:	0000      	movs	r0, r0
1fffe3c0:	0802      	lsrs	r2, r0, #32
1fffe3c2:	0403      	lsls	r3, r0, #16
1fffe3c4:	0610      	lsls	r0, r2, #24
1fffe3c6:	0c08      	lsrs	r0, r1, #16
1fffe3c8:	0010      	movs	r0, r2
1fffe3ca:	0000      	movs	r0, r0
1fffe3cc:	482c      	ldr	r0, [pc, #176]	@ (0x1fffe480)
1fffe3ce:	2101      	movs	r1, #1
1fffe3d0:	6001      	str	r1, [r0, #0]
1fffe3d2:	2100      	movs	r1, #0
1fffe3d4:	6001      	str	r1, [r0, #0]
1fffe3d6:	6041      	str	r1, [r0, #4]
1fffe3d8:	4a2a      	ldr	r2, [pc, #168]	@ (0x1fffe484)
1fffe3da:	f44f 51e0 	mov.w	r1, #7168	@ 0x1c00
1fffe3de:	8011      	strh	r1, [r2, #0]
1fffe3e0:	e7ff      	b.n	0x1fffe3e2
1fffe3e2:	6001      	str	r1, [r0, #0]
1fffe3e4:	2000      	movs	r0, #0
1fffe3e6:	4770      	bx	lr
1fffe3e8:	4825      	ldr	r0, [pc, #148]	@ (0x1fffe480)
1fffe3ea:	6801      	ldr	r1, [r0, #0]
1fffe3ec:	f041 0108 	orr.w	r1, r1, #8
1fffe3f0:	b289      	uxth	r1, r1
1fffe3f2:	6001      	str	r1, [r0, #0]
1fffe3f4:	6801      	ldr	r1, [r0, #0]
1fffe3f6:	f041 0104 	orr.w	r1, r1, #4
1fffe3fa:	b289      	uxth	r1, r1
1fffe3fc:	6001      	str	r1, [r0, #0]
1fffe3fe:	4770      	bx	lr
1fffe400:	481f      	ldr	r0, [pc, #124]	@ (0x1fffe480)
1fffe402:	f64f 72fb 	movw	r2, #65531	@ 0xfffb
1fffe406:	6801      	ldr	r1, [r0, #0]
1fffe408:	4011      	ands	r1, r2
1fffe40a:	6001      	str	r1, [r0, #0]
1fffe40c:	f44f 413e 	mov.w	r1, #48640	@ 0xbe00
1fffe410:	6001      	str	r1, [r0, #0]
1fffe412:	4770      	bx	lr
1fffe414:	0000      	movs	r0, r0
1fffe416:	0000      	movs	r0, r0
1fffe418:	b510      	push	{r4, lr}
1fffe41a:	4c1b      	ldr	r4, [pc, #108]	@ (0x1fffe488)
1fffe41c:	2807      	cmp	r0, #7
1fffe41e:	bf18      	it	ne
1fffe420:	7020      	strbne	r0, [r4, #0]
1fffe422:	7821      	ldrb	r1, [r4, #0]
1fffe424:	4816      	ldr	r0, [pc, #88]	@ (0x1fffe480)
1fffe426:	2905      	cmp	r1, #5
1fffe428:	d826      	bhi.n	0x1fffe478
1fffe42a:	e8df f001 	tbb	[pc, r1]
1fffe42e:	2503      	movs	r5, #3
1fffe430:	0a06      	lsrs	r6, r0, #8
1fffe432:	1b11      	subs	r1, r2, r4
1fffe434:	f7ff ffe4 	bl	0x1fffe400
1fffe438:	e01e      	b.n	0x1fffe478
1fffe43a:	2002      	movs	r0, #2
1fffe43c:	7060      	strb	r0, [r4, #1]
1fffe43e:	2003      	movs	r0, #3
1fffe440:	e01b      	b.n	0x1fffe47a
1fffe442:	7860      	ldrb	r0, [r4, #1]
1fffe444:	1e40      	subs	r0, r0, #1
1fffe446:	7060      	strb	r0, [r4, #1]
1fffe448:	7860      	ldrb	r0, [r4, #1]
1fffe44a:	b9b8      	cbnz	r0, 0x1fffe47c
1fffe44c:	2004      	movs	r0, #4
1fffe44e:	e014      	b.n	0x1fffe47a
1fffe450:	6801      	ldr	r1, [r0, #0]
1fffe452:	f041 0110 	orr.w	r1, r1, #16
1fffe456:	b289      	uxth	r1, r1
1fffe458:	6001      	str	r1, [r0, #0]
1fffe45a:	2005      	movs	r0, #5
1fffe45c:	7020      	strb	r0, [r4, #0]
1fffe45e:	200a      	movs	r0, #10
1fffe460:	7060      	strb	r0, [r4, #1]
1fffe462:	bd10      	pop	{r4, pc}
1fffe464:	7861      	ldrb	r1, [r4, #1]
1fffe466:	1e49      	subs	r1, r1, #1
1fffe468:	7061      	strb	r1, [r4, #1]
1fffe46a:	7861      	ldrb	r1, [r4, #1]
1fffe46c:	b931      	cbnz	r1, 0x1fffe47c
1fffe46e:	6801      	ldr	r1, [r0, #0]
1fffe470:	f64f 72ef 	movw	r2, #65519	@ 0xffef
1fffe474:	4011      	ands	r1, r2
1fffe476:	6001      	str	r1, [r0, #0]
1fffe478:	2006      	movs	r0, #6
1fffe47a:	7020      	strb	r0, [r4, #0]
1fffe47c:	bd10      	pop	{r4, pc}
1fffe47e:	0000      	movs	r0, r0
1fffe480:	5c40      	ldrb	r0, [r0, r1]
1fffe482:	4000      	ands	r0, r0
1fffe484:	0e50      	lsrs	r0, r2, #25
1fffe486:	2000      	movs	r0, #0
1fffe488:	0e4c      	lsrs	r4, r1, #25
1fffe48a:	2000      	movs	r0, #0
1fffe48c:	f1a0 6100 	sub.w	r1, r0, #134217728	@ 0x8000000
1fffe490:	f5b1 2f80 	cmp.w	r1, #262144	@ 0x40000
1fffe494:	d201      	bcs.n	0x1fffe49a
1fffe496:	2002      	movs	r0, #2
1fffe498:	4770      	bx	lr
1fffe49a:	49c4      	ldr	r1, [pc, #784]	@ (0x1fffe7ac)
1fffe49c:	1809      	adds	r1, r1, r0
1fffe49e:	f5b1 4f0c 	cmp.w	r1, #35840	@ 0x8c00
1fffe4a2:	d201      	bcs.n	0x1fffe4a8
1fffe4a4:	2003      	movs	r0, #3
1fffe4a6:	4770      	bx	lr
1fffe4a8:	f100 4160 	add.w	r1, r0, #3758096384	@ 0xe0000000
1fffe4ac:	f501 6100 	add.w	r1, r1, #2048	@ 0x800
1fffe4b0:	2910      	cmp	r1, #16
1fffe4b2:	d201      	bcs.n	0x1fffe4b8
1fffe4b4:	2004      	movs	r0, #4
1fffe4b6:	4770      	bx	lr
1fffe4b8:	f100 4060 	add.w	r0, r0, #3758096384	@ 0xe0000000
1fffe4bc:	f500 5020 	add.w	r0, r0, #10240	@ 0x2800
1fffe4c0:	f5b0 5f00 	cmp.w	r0, #8192	@ 0x2000
1fffe4c4:	d201      	bcs.n	0x1fffe4ca
1fffe4c6:	2005      	movs	r0, #5
1fffe4c8:	4770      	bx	lr
1fffe4ca:	2001      	movs	r0, #1
1fffe4cc:	4770      	bx	lr
1fffe4ce:	48b8      	ldr	r0, [pc, #736]	@ (0x1fffe7b0)
1fffe4d0:	2100      	movs	r1, #0
1fffe4d2:	f840 1904 	str.w	r1, [r0], #-4
1fffe4d6:	f1b0 5f00 	cmp.w	r0, #536870912	@ 0x20000000
1fffe4da:	d1fa      	bne.n	0x1fffe4d2
1fffe4dc:	4770      	bx	lr
1fffe4de:	48b5      	ldr	r0, [pc, #724]	@ (0x1fffe7b4)
1fffe4e0:	e7ff      	b.n	0x1fffe4e2
1fffe4e2:	49b5      	ldr	r1, [pc, #724]	@ (0x1fffe7b8)
1fffe4e4:	6001      	str	r1, [r0, #0]
1fffe4e6:	49b5      	ldr	r1, [pc, #724]	@ (0x1fffe7bc)
1fffe4e8:	6001      	str	r1, [r0, #0]
1fffe4ea:	4770      	bx	lr
1fffe4ec:	f640 70ff 	movw	r0, #4095	@ 0xfff
1fffe4f0:	e001      	b.n	0x1fffe4f6
1fffe4f2:	b128      	cbz	r0, 0x1fffe500
1fffe4f4:	1e40      	subs	r0, r0, #1
1fffe4f6:	49b2      	ldr	r1, [pc, #712]	@ (0x1fffe7c0)
1fffe4f8:	6809      	ldr	r1, [r1, #0]
1fffe4fa:	07c9      	lsls	r1, r1, #31
1fffe4fc:	d4f9      	bmi.n	0x1fffe4f2
1fffe4fe:	b908      	cbnz	r0, 0x1fffe504
1fffe500:	f000 bc06 	b.w	0x1fffed10
1fffe504:	4770      	bx	lr
1fffe506:	b570      	push	{r4, r5, r6, lr}
1fffe508:	4604      	mov	r4, r0
1fffe50a:	460d      	mov	r5, r1
1fffe50c:	4616      	mov	r6, r2
1fffe50e:	f7ff ffbd 	bl	0x1fffe48c
1fffe512:	2802      	cmp	r0, #2
1fffe514:	d004      	beq.n	0x1fffe520
1fffe516:	d315      	bcc.n	0x1fffe544
1fffe518:	2804      	cmp	r0, #4
1fffe51a:	d00d      	beq.n	0x1fffe538
1fffe51c:	d306      	bcc.n	0x1fffe52c
1fffe51e:	bd70      	pop	{r4, r5, r6, pc}
1fffe520:	4632      	mov	r2, r6
1fffe522:	4629      	mov	r1, r5
1fffe524:	4620      	mov	r0, r4
1fffe526:	e8bd 4070 	ldmia.w	sp!, {r4, r5, r6, lr}
1fffe52a:	e00c      	b.n	0x1fffe546
1fffe52c:	4632      	mov	r2, r6
1fffe52e:	4629      	mov	r1, r5
1fffe530:	4620      	mov	r0, r4
1fffe532:	e8bd 4070 	ldmia.w	sp!, {r4, r5, r6, lr}
1fffe536:	e024      	b.n	0x1fffe582
1fffe538:	4632      	mov	r2, r6
1fffe53a:	4629      	mov	r1, r5
1fffe53c:	4620      	mov	r0, r4
1fffe53e:	e8bd 4070 	ldmia.w	sp!, {r4, r5, r6, lr}
1fffe542:	e027      	b.n	0x1fffe594
1fffe544:	bd70      	pop	{r4, r5, r6, pc}
1fffe546:	b5f8      	push	{r3, r4, r5, r6, r7, lr}
1fffe548:	4604      	mov	r4, r0
1fffe54a:	4616      	mov	r6, r2
1fffe54c:	2700      	movs	r7, #0
1fffe54e:	460d      	mov	r5, r1
1fffe550:	07f0      	lsls	r0, r6, #31
1fffe552:	d404      	bmi.n	0x1fffe55e
1fffe554:	e012      	b.n	0x1fffe57c
1fffe556:	5b79      	ldrh	r1, [r7, r5]
1fffe558:	f000 f849 	bl	0x1fffe5ee
1fffe55c:	1cbf      	adds	r7, r7, #2
1fffe55e:	1938      	adds	r0, r7, r4
1fffe560:	1e71      	subs	r1, r6, #1
1fffe562:	428f      	cmp	r7, r1
1fffe564:	d3f7      	bcc.n	0x1fffe556
1fffe566:	5d79      	ldrb	r1, [r7, r5]
1fffe568:	e8bd 40f4 	ldmia.w	sp!, {r2, r4, r5, r6, r7, lr}
1fffe56c:	f441 417f 	orr.w	r1, r1, #65280	@ 0xff00
1fffe570:	e03d      	b.n	0x1fffe5ee
1fffe572:	5b79      	ldrh	r1, [r7, r5]
1fffe574:	1938      	adds	r0, r7, r4
1fffe576:	f000 f83a 	bl	0x1fffe5ee
1fffe57a:	1cbf      	adds	r7, r7, #2
1fffe57c:	42b7      	cmp	r7, r6
1fffe57e:	d3f8      	bcc.n	0x1fffe572
1fffe580:	bdf1      	pop	{r0, r4, r5, r6, r7, pc}
1fffe582:	b510      	push	{r4, lr}
1fffe584:	2300      	movs	r3, #0
1fffe586:	e002      	b.n	0x1fffe58e
1fffe588:	5c5c      	ldrb	r4, [r3, r1]
1fffe58a:	541c      	strb	r4, [r3, r0]
1fffe58c:	1c5b      	adds	r3, r3, #1
1fffe58e:	4293      	cmp	r3, r2
1fffe590:	d3fa      	bcc.n	0x1fffe588
1fffe592:	bd10      	pop	{r4, pc}
1fffe594:	e92d 41f0 	stmdb	sp!, {r4, r5, r6, r7, r8, lr}
1fffe598:	f8df 8228 	ldr.w	r8, [pc, #552]	@ 0x1fffe7c4
1fffe59c:	460c      	mov	r4, r1
1fffe59e:	4615      	mov	r5, r2
1fffe5a0:	4540      	cmp	r0, r8
1fffe5a2:	d122      	bne.n	0x1fffe5ea
1fffe5a4:	2d11      	cmp	r5, #17
1fffe5a6:	d220      	bcs.n	0x1fffe5ea
1fffe5a8:	f000 f8df 	bl	0x1fffe76a
1fffe5ac:	4f81      	ldr	r7, [pc, #516]	@ (0x1fffe7b4)
1fffe5ae:	4882      	ldr	r0, [pc, #520]	@ (0x1fffe7b8)
1fffe5b0:	4982      	ldr	r1, [pc, #520]	@ (0x1fffe7bc)
1fffe5b2:	6038      	str	r0, [r7, #0]
1fffe5b4:	6039      	str	r1, [r7, #0]
1fffe5b6:	6078      	str	r0, [r7, #4]
1fffe5b8:	6079      	str	r1, [r7, #4]
1fffe5ba:	68f8      	ldr	r0, [r7, #12]
1fffe5bc:	f040 0010 	orr.w	r0, r0, #16
1fffe5c0:	60f8      	str	r0, [r7, #12]
1fffe5c2:	f7ff ff93 	bl	0x1fffe4ec
1fffe5c6:	462e      	mov	r6, r5
1fffe5c8:	2e00      	cmp	r6, #0
1fffe5ca:	e009      	b.n	0x1fffe5e0
1fffe5cc:	4270      	negs	r0, r6
1fffe5ce:	1929      	adds	r1, r5, r4
1fffe5d0:	5a40      	ldrh	r0, [r0, r1]
1fffe5d2:	eba8 0106 	sub.w	r1, r8, r6
1fffe5d6:	b2c0      	uxtb	r0, r0
1fffe5d8:	5268      	strh	r0, [r5, r1]
1fffe5da:	f7ff ff87 	bl	0x1fffe4ec
1fffe5de:	1eb6      	subs	r6, r6, #2
1fffe5e0:	d1f4      	bne.n	0x1fffe5cc
1fffe5e2:	68f8      	ldr	r0, [r7, #12]
1fffe5e4:	f020 0010 	bic.w	r0, r0, #16
1fffe5e8:	60f8      	str	r0, [r7, #12]
1fffe5ea:	e8bd 81f0 	ldmia.w	sp!, {r4, r5, r6, r7, r8, pc}
1fffe5ee:	b570      	push	{r4, r5, r6, lr}
1fffe5f0:	4605      	mov	r5, r0
1fffe5f2:	460e      	mov	r6, r1
1fffe5f4:	f7ff ff7a 	bl	0x1fffe4ec
1fffe5f8:	4c71      	ldr	r4, [pc, #452]	@ (0x1fffe7c0)
1fffe5fa:	6860      	ldr	r0, [r4, #4]
1fffe5fc:	f040 0001 	orr.w	r0, r0, #1
1fffe600:	6060      	str	r0, [r4, #4]
1fffe602:	802e      	strh	r6, [r5, #0]
1fffe604:	f7ff ff72 	bl	0x1fffe4ec
1fffe608:	6820      	ldr	r0, [r4, #0]
1fffe60a:	f040 0004 	orr.w	r0, r0, #4
1fffe60e:	6020      	str	r0, [r4, #0]
1fffe610:	6860      	ldr	r0, [r4, #4]
1fffe612:	0840      	lsrs	r0, r0, #1
1fffe614:	0040      	lsls	r0, r0, #1
1fffe616:	6060      	str	r0, [r4, #4]
1fffe618:	bd70      	pop	{r4, r5, r6, pc}
1fffe61a:	b538      	push	{r3, r4, r5, lr}
1fffe61c:	4604      	mov	r4, r0
1fffe61e:	f7ff ff65 	bl	0x1fffe4ec
1fffe622:	4d69      	ldr	r5, [pc, #420]	@ (0x1fffe7c8)
1fffe624:	6828      	ldr	r0, [r5, #0]
1fffe626:	f040 0002 	orr.w	r0, r0, #2
1fffe62a:	6028      	str	r0, [r5, #0]
1fffe62c:	606c      	str	r4, [r5, #4]
1fffe62e:	6828      	ldr	r0, [r5, #0]
1fffe630:	f040 0042 	orr.w	r0, r0, #66	@ 0x42
1fffe634:	6028      	str	r0, [r5, #0]
1fffe636:	f7ff ff59 	bl	0x1fffe4ec
1fffe63a:	2000      	movs	r0, #0
1fffe63c:	6028      	str	r0, [r5, #0]
1fffe63e:	bd31      	pop	{r0, r4, r5, pc}
1fffe640:	b510      	push	{r4, lr}
1fffe642:	f7ff ff53 	bl	0x1fffe4ec
1fffe646:	4c60      	ldr	r4, [pc, #384]	@ (0x1fffe7c8)
1fffe648:	6820      	ldr	r0, [r4, #0]
1fffe64a:	f040 0004 	orr.w	r0, r0, #4
1fffe64e:	6020      	str	r0, [r4, #0]
1fffe650:	6820      	ldr	r0, [r4, #0]
1fffe652:	f040 0040 	orr.w	r0, r0, #64	@ 0x40
1fffe656:	6020      	str	r0, [r4, #0]
1fffe658:	f7ff ff48 	bl	0x1fffe4ec
1fffe65c:	6820      	ldr	r0, [r4, #0]
1fffe65e:	f020 0004 	bic.w	r0, r0, #4
1fffe662:	6020      	str	r0, [r4, #0]
1fffe664:	bd10      	pop	{r4, pc}
1fffe666:	e92d 41f0 	stmdb	sp!, {r4, r5, r6, r7, r8, lr}
1fffe66a:	4c56      	ldr	r4, [pc, #344]	@ (0x1fffe7c4)
1fffe66c:	43c7      	mvns	r7, r0
1fffe66e:	8825      	ldrh	r5, [r4, #0]
1fffe670:	f8b4 8002 	ldrh.w	r8, [r4, #2]
1fffe674:	f000 f879 	bl	0x1fffe76a
1fffe678:	4e4e      	ldr	r6, [pc, #312]	@ (0x1fffe7b4)
1fffe67a:	484f      	ldr	r0, [pc, #316]	@ (0x1fffe7b8)
1fffe67c:	494f      	ldr	r1, [pc, #316]	@ (0x1fffe7bc)
1fffe67e:	6030      	str	r0, [r6, #0]
1fffe680:	6031      	str	r1, [r6, #0]
1fffe682:	6070      	str	r0, [r6, #4]
1fffe684:	6071      	str	r1, [r6, #4]
1fffe686:	68f0      	ldr	r0, [r6, #12]
1fffe688:	f040 0010 	orr.w	r0, r0, #16
1fffe68c:	60f0      	str	r0, [r6, #12]
1fffe68e:	8025      	strh	r5, [r4, #0]
1fffe690:	f7ff ff2c 	bl	0x1fffe4ec
1fffe694:	f8a4 8002 	strh.w	r8, [r4, #2]
1fffe698:	f7ff ff28 	bl	0x1fffe4ec
1fffe69c:	f007 00ff 	and.w	r0, r7, #255	@ 0xff
1fffe6a0:	8120      	strh	r0, [r4, #8]
1fffe6a2:	f7ff ff23 	bl	0x1fffe4ec
1fffe6a6:	f3c7 2007 	ubfx	r0, r7, #8, #8
1fffe6aa:	8160      	strh	r0, [r4, #10]
1fffe6ac:	f7ff ff1e 	bl	0x1fffe4ec
1fffe6b0:	0c38      	lsrs	r0, r7, #16
1fffe6b2:	b2c0      	uxtb	r0, r0
1fffe6b4:	81a0      	strh	r0, [r4, #12]
1fffe6b6:	f7ff ff19 	bl	0x1fffe4ec
1fffe6ba:	0e38      	lsrs	r0, r7, #24
1fffe6bc:	81e0      	strh	r0, [r4, #14]
1fffe6be:	f7ff ff15 	bl	0x1fffe4ec
1fffe6c2:	68f0      	ldr	r0, [r6, #12]
1fffe6c4:	f020 0010 	bic.w	r0, r0, #16
1fffe6c8:	60f0      	str	r0, [r6, #12]
1fffe6ca:	e8bd 81f0 	ldmia.w	sp!, {r4, r5, r6, r7, r8, pc}
1fffe6ce:	e92d 4ff8 	stmdb	sp!, {r3, r4, r5, r6, r7, r8, r9, sl, fp, lr}
1fffe6d2:	4683      	mov	fp, r0
1fffe6d4:	f7ff ff0a 	bl	0x1fffe4ec
1fffe6d8:	4d3a      	ldr	r5, [pc, #232]	@ (0x1fffe7c4)
1fffe6da:	8868      	ldrh	r0, [r5, #2]
1fffe6dc:	f8ad 0002 	strh.w	r0, [sp, #2]
1fffe6e0:	88a8      	ldrh	r0, [r5, #4]
1fffe6e2:	f8ad 0000 	strh.w	r0, [sp]
1fffe6e6:	88ee      	ldrh	r6, [r5, #6]
1fffe6e8:	892f      	ldrh	r7, [r5, #8]
1fffe6ea:	f8b5 800a 	ldrh.w	r8, [r5, #10]
1fffe6ee:	f8b5 900c 	ldrh.w	r9, [r5, #12]
1fffe6f2:	f8b5 a00e 	ldrh.w	sl, [r5, #14]
1fffe6f6:	f000 f838 	bl	0x1fffe76a
1fffe6fa:	f000 f848 	bl	0x1fffe78e
1fffe6fe:	68e0      	ldr	r0, [r4, #12]
1fffe700:	f1bb 0f00 	cmp.w	fp, #0
1fffe704:	f040 0010 	orr.w	r0, r0, #16
1fffe708:	60e0      	str	r0, [r4, #12]
1fffe70a:	d01d      	beq.n	0x1fffe748
1fffe70c:	f8bd 0002 	ldrh.w	r0, [sp, #2]
1fffe710:	8068      	strh	r0, [r5, #2]
1fffe712:	f7ff feeb 	bl	0x1fffe4ec
1fffe716:	f8bd 0000 	ldrh.w	r0, [sp]
1fffe71a:	80a8      	strh	r0, [r5, #4]
1fffe71c:	f7ff fee6 	bl	0x1fffe4ec
1fffe720:	80ee      	strh	r6, [r5, #6]
1fffe722:	f7ff fee3 	bl	0x1fffe4ec
1fffe726:	812f      	strh	r7, [r5, #8]
1fffe728:	f7ff fee0 	bl	0x1fffe4ec
1fffe72c:	f8a5 800a 	strh.w	r8, [r5, #10]
1fffe730:	f7ff fedc 	bl	0x1fffe4ec
1fffe734:	f8a5 900c 	strh.w	r9, [r5, #12]
1fffe738:	f7ff fed8 	bl	0x1fffe4ec
1fffe73c:	f8a5 a00e 	strh.w	sl, [r5, #14]
1fffe740:	f7ff fed4 	bl	0x1fffe4ec
1fffe744:	2000      	movs	r0, #0
1fffe746:	e000      	b.n	0x1fffe74a
1fffe748:	20aa      	movs	r0, #170	@ 0xaa
1fffe74a:	8028      	strh	r0, [r5, #0]
1fffe74c:	f7ff fece 	bl	0x1fffe4ec
1fffe750:	68e0      	ldr	r0, [r4, #12]
1fffe752:	f020 0010 	bic.w	r0, r0, #16
1fffe756:	60e0      	str	r0, [r4, #12]
1fffe758:	e8bd 8ff1 	ldmia.w	sp!, {r0, r4, r5, r6, r7, r8, r9, sl, fp, pc}
1fffe75c:	481b      	ldr	r0, [pc, #108]	@ (0x1fffe7cc)
1fffe75e:	6800      	ldr	r0, [r0, #0]
1fffe760:	0600      	lsls	r0, r0, #24
1fffe762:	0e40      	lsrs	r0, r0, #25
1fffe764:	f000 0001 	and.w	r0, r0, #1
1fffe768:	4770      	bx	lr
1fffe76a:	b510      	push	{r4, lr}
1fffe76c:	f000 f80f 	bl	0x1fffe78e
1fffe770:	68e0      	ldr	r0, [r4, #12]
1fffe772:	f040 0020 	orr.w	r0, r0, #32
1fffe776:	60e0      	str	r0, [r4, #12]
1fffe778:	68e0      	ldr	r0, [r4, #12]
1fffe77a:	f040 0040 	orr.w	r0, r0, #64	@ 0x40
1fffe77e:	60e0      	str	r0, [r4, #12]
1fffe780:	f7ff feb4 	bl	0x1fffe4ec
1fffe784:	68e0      	ldr	r0, [r4, #12]
1fffe786:	f020 0020 	bic.w	r0, r0, #32
1fffe78a:	60e0      	str	r0, [r4, #12]
1fffe78c:	bd10      	pop	{r4, pc}
1fffe78e:	4c09      	ldr	r4, [pc, #36]	@ (0x1fffe7b4)
1fffe790:	4809      	ldr	r0, [pc, #36]	@ (0x1fffe7b8)
1fffe792:	490a      	ldr	r1, [pc, #40]	@ (0x1fffe7bc)
1fffe794:	6020      	str	r0, [r4, #0]
1fffe796:	6021      	str	r1, [r4, #0]
1fffe798:	6060      	str	r0, [r4, #4]
1fffe79a:	6061      	str	r1, [r4, #4]
1fffe79c:	e6a6      	b.n	0x1fffe4ec
1fffe79e:	480a      	ldr	r0, [pc, #40]	@ (0x1fffe7c8)
1fffe7a0:	6801      	ldr	r1, [r0, #0]
1fffe7a2:	f441 5100 	orr.w	r1, r1, #8192	@ 0x2000
1fffe7a6:	6001      	str	r1, [r0, #0]
1fffe7a8:	4770      	bx	lr
1fffe7aa:	0000      	movs	r0, r0
1fffe7ac:	ec00 dfff 	stc	15, cr13, [r0], {255}	@ 0xff
1fffe7b0:	9ffc      	ldr	r7, [sp, #1008]	@ 0x3f0
1fffe7b2:	2000      	movs	r0, #0
1fffe7b4:	2004      	movs	r0, #4
1fffe7b6:	4002      	ands	r2, r0
1fffe7b8:	0123      	lsls	r3, r4, #4
1fffe7ba:	4567      	cmp	r7, ip
1fffe7bc:	89ab      	ldrh	r3, [r5, #12]
1fffe7be:	cdef      	ldmia	r5, {r0, r1, r2, r3, r5, r6, r7}
1fffe7c0:	200c      	movs	r0, #12
1fffe7c2:	4002      	ands	r2, r0
1fffe7c4:	f800 1fff 	strb.w	r1, [r0, #255]!
1fffe7c8:	2010      	movs	r0, #16
1fffe7ca:	4002      	ands	r2, r0
1fffe7cc:	201c      	movs	r0, #28
1fffe7ce:	4002      	ands	r2, r0
1fffe7d0:	f8df 14d0 	ldr.w	r1, [pc, #1232]	@ 0x1fffeca4
1fffe7d4:	6809      	ldr	r1, [r1, #0]
1fffe7d6:	b900      	cbnz	r0, 0x1fffe7da
1fffe7d8:	e00a      	b.n	0x1fffe7f0
1fffe7da:	f101 000a 	add.w	r0, r1, #10
1fffe7de:	4770      	bx	lr
1fffe7e0:	f8df 14c0 	ldr.w	r1, [pc, #1216]	@ 0x1fffeca4
1fffe7e4:	6809      	ldr	r1, [r1, #0]
1fffe7e6:	b900      	cbnz	r0, 0x1fffe7ea
1fffe7e8:	e002      	b.n	0x1fffe7f0
1fffe7ea:	f101 000c 	add.w	r0, r1, #12
1fffe7ee:	4770      	bx	lr
1fffe7f0:	2001      	movs	r0, #1
1fffe7f2:	8208      	strh	r0, [r1, #16]
1fffe7f4:	2000      	movs	r0, #0
1fffe7f6:	4770      	bx	lr
1fffe7f8:	f8df 04a8 	ldr.w	r0, [pc, #1192]	@ 0x1fffeca4
1fffe7fc:	6801      	ldr	r1, [r0, #0]
1fffe7fe:	794a      	ldrb	r2, [r1, #5]
1fffe800:	b94a      	cbnz	r2, 0x1fffe816
1fffe802:	78ca      	ldrb	r2, [r1, #3]
1fffe804:	2a03      	cmp	r2, #3
1fffe806:	d206      	bcs.n	0x1fffe816
1fffe808:	2200      	movs	r2, #0
1fffe80a:	72ca      	strb	r2, [r1, #11]
1fffe80c:	6800      	ldr	r0, [r0, #0]
1fffe80e:	78c1      	ldrb	r1, [r0, #3]
1fffe810:	7301      	strb	r1, [r0, #12]
1fffe812:	2000      	movs	r0, #0
1fffe814:	4770      	bx	lr
1fffe816:	2002      	movs	r0, #2
1fffe818:	4770      	bx	lr
1fffe81a:	b510      	push	{r4, lr}
1fffe81c:	f8df 1484 	ldr.w	r1, [pc, #1156]	@ 0x1fffeca4
1fffe820:	6809      	ldr	r1, [r1, #0]
1fffe822:	b910      	cbnz	r0, 0x1fffe82a
1fffe824:	2002      	movs	r0, #2
1fffe826:	8208      	strh	r0, [r1, #16]
1fffe828:	e023      	b.n	0x1fffe872
1fffe82a:	f8df 047c 	ldr.w	r0, [pc, #1148]	@ 0x1fffeca8
1fffe82e:	2200      	movs	r2, #0
1fffe830:	8002      	strh	r2, [r0, #0]
1fffe832:	780a      	ldrb	r2, [r1, #0]
1fffe834:	f002 037f 	and.w	r3, r2, #127	@ 0x7f
1fffe838:	2b01      	cmp	r3, #1
1fffe83a:	d01b      	beq.n	0x1fffe874
1fffe83c:	f002 027f 	and.w	r2, r2, #127	@ 0x7f
1fffe840:	2a02      	cmp	r2, #2
1fffe842:	d116      	bne.n	0x1fffe872
1fffe844:	7949      	ldrb	r1, [r1, #5]
1fffe846:	2300      	movs	r3, #0
1fffe848:	f8df 4460 	ldr.w	r4, [pc, #1120]	@ 0x1fffecac
1fffe84c:	f001 020f 	and.w	r2, r1, #15
1fffe850:	0609      	lsls	r1, r1, #24
1fffe852:	f043 0301 	orr.w	r3, r3, #1
1fffe856:	f854 1022 	ldr.w	r1, [r4, r2, lsl #2]
1fffe85a:	d503      	bpl.n	0x1fffe864
1fffe85c:	f001 0130 	and.w	r1, r1, #48	@ 0x30
1fffe860:	2910      	cmp	r1, #16
1fffe862:	e003      	b.n	0x1fffe86c
1fffe864:	f401 5140 	and.w	r1, r1, #12288	@ 0x3000
1fffe868:	f5b1 5f80 	cmp.w	r1, #4096	@ 0x1000
1fffe86c:	d102      	bne.n	0x1fffe874
1fffe86e:	7003      	strb	r3, [r0, #0]
1fffe870:	bd10      	pop	{r4, pc}
1fffe872:	2000      	movs	r0, #0
1fffe874:	bd10      	pop	{r4, pc}
1fffe876:	f8df 042c 	ldr.w	r0, [pc, #1068]	@ 0x1fffeca4
1fffe87a:	6801      	ldr	r1, [r0, #0]
1fffe87c:	7808      	ldrb	r0, [r1, #0]
1fffe87e:	f010 007f 	ands.w	r0, r0, #127	@ 0x7f
1fffe882:	bf02      	ittt	eq
1fffe884:	7a48      	ldrbeq	r0, [r1, #9]
1fffe886:	f000 00df 	andeq.w	r0, r0, #223	@ 0xdf
1fffe88a:	7248      	strbeq	r0, [r1, #9]
1fffe88c:	d030      	beq.n	0x1fffe8f0
1fffe88e:	2802      	cmp	r0, #2
1fffe890:	d130      	bne.n	0x1fffe8f4
1fffe892:	7949      	ldrb	r1, [r1, #5]
1fffe894:	f8df 0414 	ldr.w	r0, [pc, #1044]	@ 0x1fffecac
1fffe898:	0609      	lsls	r1, r1, #24
1fffe89a:	6801      	ldr	r1, [r0, #0]
1fffe89c:	d514      	bpl.n	0x1fffe8c8
1fffe89e:	f001 0130 	and.w	r1, r1, #48	@ 0x30
1fffe8a2:	2910      	cmp	r1, #16
1fffe8a4:	d124      	bne.n	0x1fffe8f0
1fffe8a6:	6801      	ldr	r1, [r0, #0]
1fffe8a8:	0649      	lsls	r1, r1, #25
1fffe8aa:	d506      	bpl.n	0x1fffe8ba
1fffe8ac:	6801      	ldr	r1, [r0, #0]
1fffe8ae:	f648 728f 	movw	r2, #36751	@ 0x8f8f
1fffe8b2:	4011      	ands	r1, r2
1fffe8b4:	f041 0140 	orr.w	r1, r1, #64	@ 0x40
1fffe8b8:	6001      	str	r1, [r0, #0]
1fffe8ba:	6801      	ldr	r1, [r0, #0]
1fffe8bc:	f648 72bf 	movw	r2, #36799	@ 0x8fbf
1fffe8c0:	4011      	ands	r1, r2
1fffe8c2:	f081 0130 	eor.w	r1, r1, #48	@ 0x30
1fffe8c6:	e012      	b.n	0x1fffe8ee
1fffe8c8:	f401 5140 	and.w	r1, r1, #12288	@ 0x3000
1fffe8cc:	f5b1 5f80 	cmp.w	r1, #4096	@ 0x1000
1fffe8d0:	d10e      	bne.n	0x1fffe8f0
1fffe8d2:	6d01      	ldr	r1, [r0, #80]	@ 0x50
1fffe8d4:	f8df 23d8 	ldr.w	r2, [pc, #984]	@ 0x1fffecb0
1fffe8d8:	b289      	uxth	r1, r1
1fffe8da:	f44f 4304 	mov.w	r3, #33792	@ 0x8400
1fffe8de:	f842 3011 	str.w	r3, [r2, r1, lsl #1]
1fffe8e2:	6801      	ldr	r1, [r0, #0]
1fffe8e4:	f64b 728f 	movw	r2, #49039	@ 0xbf8f
1fffe8e8:	4011      	ands	r1, r2
1fffe8ea:	f481 5140 	eor.w	r1, r1, #12288	@ 0x3000
1fffe8ee:	6001      	str	r1, [r0, #0]
1fffe8f0:	2000      	movs	r0, #0
1fffe8f2:	4770      	bx	lr
1fffe8f4:	2002      	movs	r0, #2
1fffe8f6:	4770      	bx	lr
1fffe8f8:	f8df 13a8 	ldr.w	r1, [pc, #936]	@ 0x1fffeca4
1fffe8fc:	f8df 03ac 	ldr.w	r0, [pc, #940]	@ 0x1fffecac
1fffe900:	6809      	ldr	r1, [r1, #0]
1fffe902:	7949      	ldrb	r1, [r1, #5]
1fffe904:	0609      	lsls	r1, r1, #24
1fffe906:	6801      	ldr	r1, [r0, #0]
1fffe908:	bf42      	ittt	mi
1fffe90a:	f648 72bf 	movwmi	r2, #36799	@ 0x8fbf
1fffe90e:	4011      	andmi	r1, r2
1fffe910:	f081 0110 	eormi.w	r1, r1, #16
1fffe914:	d404      	bmi.n	0x1fffe920
1fffe916:	f64b 728f 	movw	r2, #49039	@ 0xbf8f
1fffe91a:	4011      	ands	r1, r2
1fffe91c:	f481 5180 	eor.w	r1, r1, #4096	@ 0x1000
1fffe920:	6001      	str	r1, [r0, #0]
1fffe922:	2000      	movs	r0, #0
1fffe924:	4770      	bx	lr
1fffe926:	f8df 037c 	ldr.w	r0, [pc, #892]	@ 0x1fffeca4
1fffe92a:	6800      	ldr	r0, [r0, #0]
1fffe92c:	7a41      	ldrb	r1, [r0, #9]
1fffe92e:	f041 0120 	orr.w	r1, r1, #32
1fffe932:	7241      	strb	r1, [r0, #9]
1fffe934:	2000      	movs	r0, #0
1fffe936:	4770      	bx	lr
1fffe938:	f8df 2368 	ldr.w	r2, [pc, #872]	@ 0x1fffeca4
1fffe93c:	6812      	ldr	r2, [r2, #0]
1fffe93e:	6953      	ldr	r3, [r2, #20]
1fffe940:	b920      	cbnz	r0, 0x1fffe94c
1fffe942:	8888      	ldrh	r0, [r1, #4]
1fffe944:	1ac0      	subs	r0, r0, r3
1fffe946:	8210      	strh	r0, [r2, #16]
1fffe948:	2000      	movs	r0, #0
1fffe94a:	4770      	bx	lr
1fffe94c:	6808      	ldr	r0, [r1, #0]
1fffe94e:	1818      	adds	r0, r3, r0
1fffe950:	4770      	bx	lr
1fffe952:	b5f8      	push	{r3, r4, r5, r6, r7, lr}
1fffe954:	f8df 634c 	ldr.w	r6, [pc, #844]	@ 0x1fffeca4
1fffe958:	f8df 5358 	ldr.w	r5, [pc, #856]	@ 0x1fffecb4
1fffe95c:	6830      	ldr	r0, [r6, #0]
1fffe95e:	f100 0410 	add.w	r4, r0, #16
1fffe962:	68e1      	ldr	r1, [r4, #12]
1fffe964:	8827      	ldrh	r7, [r4, #0]
1fffe966:	0008      	movs	r0, r1
1fffe968:	d017      	beq.n	0x1fffe99a
1fffe96a:	0038      	movs	r0, r7
1fffe96c:	d015      	beq.n	0x1fffe99a
1fffe96e:	8920      	ldrh	r0, [r4, #8]
1fffe970:	4287      	cmp	r7, r0
1fffe972:	bf88      	it	hi
1fffe974:	4607      	movhi	r7, r0
1fffe976:	4638      	mov	r0, r7
1fffe978:	4788      	blx	r1
1fffe97a:	8821      	ldrh	r1, [r4, #0]
1fffe97c:	f8df 3338 	ldr.w	r3, [pc, #824]	@ 0x1fffecb8
1fffe980:	463a      	mov	r2, r7
1fffe982:	1bc9      	subs	r1, r1, r7
1fffe984:	8021      	strh	r1, [r4, #0]
1fffe986:	6861      	ldr	r1, [r4, #4]
1fffe988:	1879      	adds	r1, r7, r1
1fffe98a:	6061      	str	r1, [r4, #4]
1fffe98c:	6829      	ldr	r1, [r5, #0]
1fffe98e:	b289      	uxth	r1, r1
1fffe990:	f853 1011 	ldr.w	r1, [r3, r1, lsl #1]
1fffe994:	b289      	uxth	r1, r1
1fffe996:	f000 f9e5 	bl	0x1fffed64
1fffe99a:	48c8      	ldr	r0, [pc, #800]	@ (0x1fffecbc)
1fffe99c:	49c8      	ldr	r1, [pc, #800]	@ (0x1fffecc0)
1fffe99e:	8822      	ldrh	r2, [r4, #0]
1fffe9a0:	b152      	cbz	r2, 0x1fffe9b8
1fffe9a2:	4ac8      	ldr	r2, [pc, #800]	@ (0x1fffecc4)
1fffe9a4:	f44f 5340 	mov.w	r3, #12288	@ 0x3000
1fffe9a8:	8013      	strh	r3, [r2, #0]
1fffe9aa:	682a      	ldr	r2, [r5, #0]
1fffe9ac:	2300      	movs	r3, #0
1fffe9ae:	b292      	uxth	r2, r2
1fffe9b0:	f841 3012 	str.w	r3, [r1, r2, lsl #1]
1fffe9b4:	2230      	movs	r2, #48	@ 0x30
1fffe9b6:	6002      	str	r2, [r0, #0]
1fffe9b8:	8823      	ldrh	r3, [r4, #0]
1fffe9ba:	8924      	ldrh	r4, [r4, #8]
1fffe9bc:	6832      	ldr	r2, [r6, #0]
1fffe9be:	42a3      	cmp	r3, r4
1fffe9c0:	bf28      	it	cs
1fffe9c2:	2003      	movcs	r0, #3
1fffe9c4:	d201      	bcs.n	0x1fffe9ca
1fffe9c6:	b113      	cbz	r3, 0x1fffe9ce
1fffe9c8:	2005      	movs	r0, #5
1fffe9ca:	7210      	strb	r0, [r2, #8]
1fffe9cc:	bdf1      	pop	{r0, r4, r5, r6, r7, pc}
1fffe9ce:	2306      	movs	r3, #6
1fffe9d0:	7213      	strb	r3, [r2, #8]
1fffe9d2:	682a      	ldr	r2, [r5, #0]
1fffe9d4:	2300      	movs	r3, #0
1fffe9d6:	b292      	uxth	r2, r2
1fffe9d8:	f841 3012 	str.w	r3, [r1, r2, lsl #1]
1fffe9dc:	2130      	movs	r1, #48	@ 0x30
1fffe9de:	6001      	str	r1, [r0, #0]
1fffe9e0:	bdf1      	pop	{r0, r4, r5, r6, r7, pc}
1fffe9e2:	e92d 41f0 	stmdb	sp!, {r4, r5, r6, r7, r8, lr}
1fffe9e6:	4caf      	ldr	r4, [pc, #700]	@ (0x1fffeca4)
1fffe9e8:	6820      	ldr	r0, [r4, #0]
1fffe9ea:	f100 0510 	add.w	r5, r0, #16
1fffe9ee:	8829      	ldrh	r1, [r5, #0]
1fffe9f0:	000a      	movs	r2, r1
1fffe9f2:	bf01      	itttt	eq
1fffe9f4:	7a00      	ldrbeq	r0, [r0, #8]
1fffe9f6:	2804      	cmpeq	r0, #4
1fffe9f8:	2607      	moveq	r6, #7
1fffe9fa:	2010      	moveq	r0, #16
1fffe9fc:	d029      	beq.n	0x1fffea52
1fffe9fe:	892f      	ldrh	r7, [r5, #8]
1fffea00:	428f      	cmp	r7, r1
1fffea02:	d305      	bcc.n	0x1fffea10
1fffea04:	2604      	movs	r6, #4
1fffea06:	42b9      	cmp	r1, r7
1fffea08:	bf88      	it	hi
1fffea0a:	4639      	movhi	r1, r7
1fffea0c:	460f      	mov	r7, r1
1fffea0e:	e000      	b.n	0x1fffea12
1fffea10:	2602      	movs	r6, #2
1fffea12:	4638      	mov	r0, r7
1fffea14:	68e9      	ldr	r1, [r5, #12]
1fffea16:	4788      	blx	r1
1fffea18:	f8df 8298 	ldr.w	r8, [pc, #664]	@ 0x1fffecb4
1fffea1c:	4baa      	ldr	r3, [pc, #680]	@ (0x1fffecc8)
1fffea1e:	f8d8 1000 	ldr.w	r1, [r8]
1fffea22:	463a      	mov	r2, r7
1fffea24:	b289      	uxth	r1, r1
1fffea26:	f853 1011 	ldr.w	r1, [r3, r1, lsl #1]
1fffea2a:	b289      	uxth	r1, r1
1fffea2c:	f000 f985 	bl	0x1fffed3a
1fffea30:	f8d8 0000 	ldr.w	r0, [r8]
1fffea34:	49a2      	ldr	r1, [pc, #648]	@ (0x1fffecc0)
1fffea36:	b280      	uxth	r0, r0
1fffea38:	f841 7010 	str.w	r7, [r1, r0, lsl #1]
1fffea3c:	8828      	ldrh	r0, [r5, #0]
1fffea3e:	49a1      	ldr	r1, [pc, #644]	@ (0x1fffecc4)
1fffea40:	f44f 5240 	mov.w	r2, #12288	@ 0x3000
1fffea44:	1bc0      	subs	r0, r0, r7
1fffea46:	8028      	strh	r0, [r5, #0]
1fffea48:	6868      	ldr	r0, [r5, #4]
1fffea4a:	1838      	adds	r0, r7, r0
1fffea4c:	6068      	str	r0, [r5, #4]
1fffea4e:	2030      	movs	r0, #48	@ 0x30
1fffea50:	800a      	strh	r2, [r1, #0]
1fffea52:	499a      	ldr	r1, [pc, #616]	@ (0x1fffecbc)
1fffea54:	6008      	str	r0, [r1, #0]
1fffea56:	6820      	ldr	r0, [r4, #0]
1fffea58:	7206      	strb	r6, [r0, #8]
1fffea5a:	e8bd 81f0 	ldmia.w	sp!, {r4, r5, r6, r7, r8, pc}
1fffea5e:	b510      	push	{r4, lr}
1fffea60:	4c90      	ldr	r4, [pc, #576]	@ (0x1fffeca4)
1fffea62:	237f      	movs	r3, #127	@ 0x7f
1fffea64:	6821      	ldr	r1, [r4, #0]
1fffea66:	780a      	ldrb	r2, [r1, #0]
1fffea68:	7848      	ldrb	r0, [r1, #1]
1fffea6a:	421a      	tst	r2, r3
1fffea6c:	d11b      	bne.n	0x1fffeaa6
1fffea6e:	2809      	cmp	r0, #9
1fffea70:	d10f      	bne.n	0x1fffea92
1fffea72:	78c8      	ldrb	r0, [r1, #3]
1fffea74:	7288      	strb	r0, [r1, #10]
1fffea76:	498f      	ldr	r1, [pc, #572]	@ (0x1fffecb4)
1fffea78:	4a91      	ldr	r2, [pc, #580]	@ (0x1fffecc0)
1fffea7a:	6809      	ldr	r1, [r1, #0]
1fffea7c:	2300      	movs	r3, #0
1fffea7e:	b289      	uxth	r1, r1
1fffea80:	f842 3011 	str.w	r3, [r2, r1, lsl #1]
1fffea84:	498d      	ldr	r1, [pc, #564]	@ (0x1fffecbc)
1fffea86:	2230      	movs	r2, #48	@ 0x30
1fffea88:	2006      	movs	r0, #6
1fffea8a:	600a      	str	r2, [r1, #0]
1fffea8c:	6821      	ldr	r1, [r4, #0]
1fffea8e:	7208      	strb	r0, [r1, #8]
1fffea90:	bd10      	pop	{r4, pc}
1fffea92:	2805      	cmp	r0, #5
1fffea94:	d0ef      	beq.n	0x1fffea76
1fffea96:	2803      	cmp	r0, #3
1fffea98:	d102      	bne.n	0x1fffeaa0
1fffea9a:	f7ff ff44 	bl	0x1fffe926
1fffea9e:	e01b      	b.n	0x1fffead8
1fffeaa0:	2801      	cmp	r0, #1
1fffeaa2:	d11b      	bne.n	0x1fffeadc
1fffeaa4:	e00c      	b.n	0x1fffeac0
1fffeaa6:	f002 017f 	and.w	r1, r2, #127	@ 0x7f
1fffeaaa:	2901      	cmp	r1, #1
1fffeaac:	d104      	bne.n	0x1fffeab8
1fffeaae:	280b      	cmp	r0, #11
1fffeab0:	d114      	bne.n	0x1fffeadc
1fffeab2:	f7ff fea1 	bl	0x1fffe7f8
1fffeab6:	e00f      	b.n	0x1fffead8
1fffeab8:	2902      	cmp	r1, #2
1fffeaba:	d109      	bne.n	0x1fffead0
1fffeabc:	2801      	cmp	r0, #1
1fffeabe:	d102      	bne.n	0x1fffeac6
1fffeac0:	f7ff fed9 	bl	0x1fffe876
1fffeac4:	e008      	b.n	0x1fffead8
1fffeac6:	2803      	cmp	r0, #3
1fffeac8:	d108      	bne.n	0x1fffeadc
1fffeaca:	f7ff ff15 	bl	0x1fffe8f8
1fffeace:	e003      	b.n	0x1fffead8
1fffead0:	497e      	ldr	r1, [pc, #504]	@ (0x1fffeccc)
1fffead2:	6809      	ldr	r1, [r1, #0]
1fffead4:	6949      	ldr	r1, [r1, #20]
1fffead6:	4788      	blx	r1
1fffead8:	2800      	cmp	r0, #0
1fffeada:	d0cc      	beq.n	0x1fffea76
1fffeadc:	2008      	movs	r0, #8
1fffeade:	e7d5      	b.n	0x1fffea8c
1fffeae0:	b570      	push	{r4, r5, r6, lr}
1fffeae2:	4c70      	ldr	r4, [pc, #448]	@ (0x1fffeca4)
1fffeae4:	4d79      	ldr	r5, [pc, #484]	@ (0x1fffeccc)
1fffeae6:	6822      	ldr	r2, [r4, #0]
1fffeae8:	6829      	ldr	r1, [r5, #0]
1fffeaea:	7850      	ldrb	r0, [r2, #1]
1fffeaec:	2806      	cmp	r0, #6
1fffeaee:	d110      	bne.n	0x1fffeb12
1fffeaf0:	7813      	ldrb	r3, [r2, #0]
1fffeaf2:	267f      	movs	r6, #127	@ 0x7f
1fffeaf4:	4233      	tst	r3, r6
1fffeaf6:	d135      	bne.n	0x1fffeb64
1fffeaf8:	7893      	ldrb	r3, [r2, #2]
1fffeafa:	2b01      	cmp	r3, #1
1fffeafc:	bf08      	it	eq
1fffeafe:	69cb      	ldreq	r3, [r1, #28]
1fffeb00:	d021      	beq.n	0x1fffeb46
1fffeb02:	2b02      	cmp	r3, #2
1fffeb04:	bf08      	it	eq
1fffeb06:	6a0b      	ldreq	r3, [r1, #32]
1fffeb08:	d01d      	beq.n	0x1fffeb46
1fffeb0a:	2b03      	cmp	r3, #3
1fffeb0c:	d12a      	bne.n	0x1fffeb64
1fffeb0e:	6a4b      	ldr	r3, [r1, #36]	@ 0x24
1fffeb10:	e019      	b.n	0x1fffeb46
1fffeb12:	0006      	movs	r6, r0
1fffeb14:	d10c      	bne.n	0x1fffeb30
1fffeb16:	7813      	ldrb	r3, [r2, #0]
1fffeb18:	267f      	movs	r6, #127	@ 0x7f
1fffeb1a:	4233      	tst	r3, r6
1fffeb1c:	bf1f      	itttt	ne
1fffeb1e:	f003 067f 	andne.w	r6, r3, #127	@ 0x7f
1fffeb22:	2e01      	cmpne	r6, #1
1fffeb24:	f003 037f 	andne.w	r3, r3, #127	@ 0x7f
1fffeb28:	2b02      	cmpne	r3, #2
1fffeb2a:	d11b      	bne.n	0x1fffeb64
1fffeb2c:	4b68      	ldr	r3, [pc, #416]	@ (0x1fffecd0)
1fffeb2e:	e00a      	b.n	0x1fffeb46
1fffeb30:	2808      	cmp	r0, #8
1fffeb32:	d105      	bne.n	0x1fffeb40
1fffeb34:	7813      	ldrb	r3, [r2, #0]
1fffeb36:	267f      	movs	r6, #127	@ 0x7f
1fffeb38:	4233      	tst	r3, r6
1fffeb3a:	d113      	bne.n	0x1fffeb64
1fffeb3c:	4b65      	ldr	r3, [pc, #404]	@ (0x1fffecd4)
1fffeb3e:	e002      	b.n	0x1fffeb46
1fffeb40:	280a      	cmp	r0, #10
1fffeb42:	d10f      	bne.n	0x1fffeb64
1fffeb44:	4b64      	ldr	r3, [pc, #400]	@ (0x1fffecd8)
1fffeb46:	001e      	movs	r6, r3
1fffeb48:	d00c      	beq.n	0x1fffeb64
1fffeb4a:	2000      	movs	r0, #0
1fffeb4c:	6150      	str	r0, [r2, #20]
1fffeb4e:	61d3      	str	r3, [r2, #28]
1fffeb50:	4798      	blx	r3
1fffeb52:	2000      	movs	r0, #0
1fffeb54:	6821      	ldr	r1, [r4, #0]
1fffeb56:	f64f 73ff 	movw	r3, #65535	@ 0xffff
1fffeb5a:	8a0a      	ldrh	r2, [r1, #16]
1fffeb5c:	429a      	cmp	r2, r3
1fffeb5e:	d109      	bne.n	0x1fffeb74
1fffeb60:	2009      	movs	r0, #9
1fffeb62:	e00c      	b.n	0x1fffeb7e
1fffeb64:	6909      	ldr	r1, [r1, #16]
1fffeb66:	4788      	blx	r1
1fffeb68:	2803      	cmp	r0, #3
1fffeb6a:	d1f3      	bne.n	0x1fffeb54
1fffeb6c:	6820      	ldr	r0, [r4, #0]
1fffeb6e:	2109      	movs	r1, #9
1fffeb70:	7201      	strb	r1, [r0, #8]
1fffeb72:	bd70      	pop	{r4, r5, r6, pc}
1fffeb74:	2802      	cmp	r0, #2
1fffeb76:	bf18      	it	ne
1fffeb78:	2a00      	cmpne	r2, #0
1fffeb7a:	d102      	bne.n	0x1fffeb82
1fffeb7c:	2008      	movs	r0, #8
1fffeb7e:	7208      	strb	r0, [r1, #8]
1fffeb80:	bd70      	pop	{r4, r5, r6, pc}
1fffeb82:	7808      	ldrb	r0, [r1, #0]
1fffeb84:	0600      	lsls	r0, r0, #24
1fffeb86:	d50a      	bpl.n	0x1fffeb9e
1fffeb88:	88c8      	ldrh	r0, [r1, #6]
1fffeb8a:	4290      	cmp	r0, r2
1fffeb8c:	bf38      	it	cc
1fffeb8e:	8208      	strhcc	r0, [r1, #16]
1fffeb90:	6828      	ldr	r0, [r5, #0]
1fffeb92:	f890 002c 	ldrb.w	r0, [r0, #44]	@ 0x2c
1fffeb96:	8308      	strh	r0, [r1, #24]
1fffeb98:	e8bd 4070 	ldmia.w	sp!, {r4, r5, r6, lr}
1fffeb9c:	e721      	b.n	0x1fffe9e2
1fffeb9e:	2003      	movs	r0, #3
1fffeba0:	7208      	strb	r0, [r1, #8]
1fffeba2:	4848      	ldr	r0, [pc, #288]	@ (0x1fffecc4)
1fffeba4:	f44f 5140 	mov.w	r1, #12288	@ 0x3000
1fffeba8:	8001      	strh	r1, [r0, #0]
1fffebaa:	bd70      	pop	{r4, r5, r6, pc}
1fffebac:	b570      	push	{r4, r5, r6, lr}
1fffebae:	4841      	ldr	r0, [pc, #260]	@ (0x1fffecb4)
1fffebb0:	4941      	ldr	r1, [pc, #260]	@ (0x1fffecb8)
1fffebb2:	6800      	ldr	r0, [r0, #0]
1fffebb4:	4c3b      	ldr	r4, [pc, #236]	@ (0x1fffeca4)
1fffebb6:	b280      	uxth	r0, r0
1fffebb8:	f831 0010 	ldrh.w	r0, [r1, r0, lsl #1]
1fffebbc:	6821      	ldr	r1, [r4, #0]
1fffebbe:	7a0a      	ldrb	r2, [r1, #8]
1fffebc0:	0040      	lsls	r0, r0, #1
1fffebc2:	f100 4080 	add.w	r0, r0, #1073741824	@ 0x40000000
1fffebc6:	f500 40c0 	add.w	r0, r0, #24576	@ 0x6000
1fffebca:	2a09      	cmp	r2, #9
1fffebcc:	d013      	beq.n	0x1fffebf6
1fffebce:	f810 2b01 	ldrb.w	r2, [r0], #1
1fffebd2:	700a      	strb	r2, [r1, #0]
1fffebd4:	f810 2b01 	ldrb.w	r2, [r0], #1
1fffebd8:	6821      	ldr	r1, [r4, #0]
1fffebda:	1c85      	adds	r5, r0, #2
1fffebdc:	704a      	strb	r2, [r1, #1]
1fffebde:	6826      	ldr	r6, [r4, #0]
1fffebe0:	f835 0b04 	ldrh.w	r0, [r5], #4
1fffebe4:	f000 f87c 	bl	0x1fffece0
1fffebe8:	8070      	strh	r0, [r6, #2]
1fffebea:	8828      	ldrh	r0, [r5, #0]
1fffebec:	f000 f878 	bl	0x1fffece0
1fffebf0:	80b0      	strh	r0, [r6, #4]
1fffebf2:	88a8      	ldrh	r0, [r5, #4]
1fffebf4:	80f0      	strh	r0, [r6, #6]
1fffebf6:	6820      	ldr	r0, [r4, #0]
1fffebf8:	2101      	movs	r1, #1
1fffebfa:	7201      	strb	r1, [r0, #8]
1fffebfc:	6820      	ldr	r0, [r4, #0]
1fffebfe:	88c0      	ldrh	r0, [r0, #6]
1fffec00:	b910      	cbnz	r0, 0x1fffec08
1fffec02:	f7ff ff2c 	bl	0x1fffea5e
1fffec06:	e001      	b.n	0x1fffec0c
1fffec08:	f7ff ff6a 	bl	0x1fffeae0
1fffec0c:	e8bd 4070 	ldmia.w	sp!, {r4, r5, r6, lr}
1fffec10:	e034      	b.n	0x1fffec7c
1fffec12:	b510      	push	{r4, lr}
1fffec14:	4c23      	ldr	r4, [pc, #140]	@ (0x1fffeca4)
1fffec16:	6820      	ldr	r0, [r4, #0]
1fffec18:	7a01      	ldrb	r1, [r0, #8]
1fffec1a:	2902      	cmp	r1, #2
1fffec1c:	bf18      	it	ne
1fffec1e:	2904      	cmpne	r1, #4
1fffec20:	d104      	bne.n	0x1fffec2c
1fffec22:	f7ff fede 	bl	0x1fffe9e2
1fffec26:	6820      	ldr	r0, [r4, #0]
1fffec28:	7a00      	ldrb	r0, [r0, #8]
1fffec2a:	e00e      	b.n	0x1fffec4a
1fffec2c:	2906      	cmp	r1, #6
1fffec2e:	d10b      	bne.n	0x1fffec48
1fffec30:	7841      	ldrb	r1, [r0, #1]
1fffec32:	2905      	cmp	r1, #5
1fffec34:	d104      	bne.n	0x1fffec40
1fffec36:	78c0      	ldrb	r0, [r0, #3]
1fffec38:	4928      	ldr	r1, [pc, #160]	@ (0x1fffecdc)
1fffec3a:	f040 0080 	orr.w	r0, r0, #128	@ 0x80
1fffec3e:	6008      	str	r0, [r1, #0]
1fffec40:	4822      	ldr	r0, [pc, #136]	@ (0x1fffeccc)
1fffec42:	6800      	ldr	r0, [r0, #0]
1fffec44:	6880      	ldr	r0, [r0, #8]
1fffec46:	4780      	blx	r0
1fffec48:	2008      	movs	r0, #8
1fffec4a:	e013      	b.n	0x1fffec74
1fffec4c:	b510      	push	{r4, lr}
1fffec4e:	4c15      	ldr	r4, [pc, #84]	@ (0x1fffeca4)
1fffec50:	6820      	ldr	r0, [r4, #0]
1fffec52:	7a00      	ldrb	r0, [r0, #8]
1fffec54:	2803      	cmp	r0, #3
1fffec56:	bf18      	it	ne
1fffec58:	2805      	cmpne	r0, #5
1fffec5a:	d104      	bne.n	0x1fffec66
1fffec5c:	f7ff fe79 	bl	0x1fffe952
1fffec60:	6820      	ldr	r0, [r4, #0]
1fffec62:	7a00      	ldrb	r0, [r0, #8]
1fffec64:	e006      	b.n	0x1fffec74
1fffec66:	2807      	cmp	r0, #7
1fffec68:	d103      	bne.n	0x1fffec72
1fffec6a:	4818      	ldr	r0, [pc, #96]	@ (0x1fffeccc)
1fffec6c:	6800      	ldr	r0, [r0, #0]
1fffec6e:	68c0      	ldr	r0, [r0, #12]
1fffec70:	4780      	blx	r0
1fffec72:	2008      	movs	r0, #8
1fffec74:	6821      	ldr	r1, [r4, #0]
1fffec76:	7208      	strb	r0, [r1, #8]
1fffec78:	e8bd 4010 	ldmia.w	sp!, {r4, lr}
1fffec7c:	4809      	ldr	r0, [pc, #36]	@ (0x1fffeca4)
1fffec7e:	6800      	ldr	r0, [r0, #0]
1fffec80:	7a01      	ldrb	r1, [r0, #8]
1fffec82:	2908      	cmp	r1, #8
1fffec84:	d106      	bne.n	0x1fffec94
1fffec86:	490f      	ldr	r1, [pc, #60]	@ (0x1fffecc4)
1fffec88:	f44f 5280 	mov.w	r2, #4096	@ 0x1000
1fffec8c:	800a      	strh	r2, [r1, #0]
1fffec8e:	490b      	ldr	r1, [pc, #44]	@ (0x1fffecbc)
1fffec90:	2210      	movs	r2, #16
1fffec92:	600a      	str	r2, [r1, #0]
1fffec94:	7a00      	ldrb	r0, [r0, #8]
1fffec96:	2809      	cmp	r0, #9
1fffec98:	d101      	bne.n	0x1fffec9e
1fffec9a:	2001      	movs	r0, #1
1fffec9c:	4770      	bx	lr
1fffec9e:	2000      	movs	r0, #0
1fffeca0:	4770      	bx	lr
1fffeca2:	0000      	movs	r0, r0
1fffeca4:	0e04      	lsrs	r4, r0, #24
1fffeca6:	2000      	movs	r0, #0
1fffeca8:	0e48      	lsrs	r0, r1, #25
1fffecaa:	2000      	movs	r0, #0
1fffecac:	5c00      	ldrb	r0, [r0, r0]
1fffecae:	4000      	ands	r0, r0
1fffecb0:	600c      	str	r4, [r1, #0]
1fffecb2:	4000      	ands	r0, r0
1fffecb4:	5c50      	ldrb	r0, [r2, r1]
1fffecb6:	4000      	ands	r0, r0
1fffecb8:	6008      	str	r0, [r1, #0]
1fffecba:	4000      	ands	r0, r0
1fffecbc:	0e3c      	lsrs	r4, r7, #24
1fffecbe:	2000      	movs	r0, #0
1fffecc0:	6004      	str	r4, [r0, #0]
1fffecc2:	4000      	ands	r0, r0
1fffecc4:	0e38      	lsrs	r0, r7, #24
1fffecc6:	2000      	movs	r0, #0
1fffecc8:	6000      	str	r0, [r0, #0]
1fffecca:	4000      	ands	r0, r0
1fffeccc:	0e08      	lsrs	r0, r1, #24
1fffecce:	2000      	movs	r0, #0
1fffecd0:	e81b 1fff 			@ <UNDEFINED> instruction: 0xe81b1fff
1fffecd4:	e7d1      	b.n	0x1fffec7a
1fffecd6:	1fff      	subs	r7, r7, #7
1fffecd8:	e7e1      	b.n	0x1fffec9e
1fffecda:	1fff      	subs	r7, r7, #7
1fffecdc:	5c4c      	ldrb	r4, [r1, r1]
1fffecde:	4000      	ands	r0, r0
1fffece0:	0601      	lsls	r1, r0, #24
1fffece2:	0c09      	lsrs	r1, r1, #16
1fffece4:	ea41 2010 	orr.w	r0, r1, r0, lsr #8
1fffece8:	4770      	bx	lr
1fffecea:	b580      	push	{r7, lr}
1fffecec:	f7ff fbf7 	bl	0x1fffe4de
1fffecf0:	2000      	movs	r0, #0
1fffecf2:	bd02      	pop	{r1, pc}
1fffecf4:	b580      	push	{r7, lr}
1fffecf6:	f7ff fc90 	bl	0x1fffe61a
1fffecfa:	2000      	movs	r0, #0
1fffecfc:	bd02      	pop	{r1, pc}
1fffecfe:	4770      	bx	lr
1fffed00:	4805      	ldr	r0, [pc, #20]	@ (0x1fffed18)
1fffed02:	2100      	movs	r1, #0
1fffed04:	6001      	str	r1, [r0, #0]
1fffed06:	6081      	str	r1, [r0, #8]
1fffed08:	f44f 2100 	mov.w	r1, #524288	@ 0x80000
1fffed0c:	6041      	str	r1, [r0, #4]
1fffed0e:	4770      	bx	lr
1fffed10:	4802      	ldr	r0, [pc, #8]	@ (0x1fffed1c)
1fffed12:	4903      	ldr	r1, [pc, #12]	@ (0x1fffed20)
1fffed14:	6001      	str	r1, [r0, #0]
1fffed16:	4770      	bx	lr
1fffed18:	e010      	b.n	0x1fffed3c
1fffed1a:	e000      	b.n	0x1fffed1e
1fffed1c:	ed0c e000 	stc	0, cr14, [ip, #-0]
1fffed20:	0004      	movs	r4, r0
1fffed22:	05fa      	lsls	r2, r7, #23
1fffed24:	f380 8808 	msr	MSP, r0
1fffed28:	4770      	bx	lr
1fffed2a:	4770      	bx	lr
1fffed2c:	b672      	cpsid	i
1fffed2e:	4770      	bx	lr
1fffed30:	4770      	bx	lr
1fffed32:	0000      	movs	r0, r0
1fffed34:	b662      	cpsie	i
1fffed36:	4770      	bx	lr
1fffed38:	4770      	bx	lr
1fffed3a:	b510      	push	{r4, lr}
1fffed3c:	0049      	lsls	r1, r1, #1
1fffed3e:	f101 4180 	add.w	r1, r1, #1073741824	@ 0x40000000
1fffed42:	1c52      	adds	r2, r2, #1
1fffed44:	f501 41c0 	add.w	r1, r1, #24576	@ 0x6000
1fffed48:	1052      	asrs	r2, r2, #1
1fffed4a:	e009      	b.n	0x1fffed60
1fffed4c:	f810 3b01 	ldrb.w	r3, [r0], #1
1fffed50:	f810 4b01 	ldrb.w	r4, [r0], #1
1fffed54:	ea43 2304 	orr.w	r3, r3, r4, lsl #8
1fffed58:	f821 3b02 	strh.w	r3, [r1], #2
1fffed5c:	1c89      	adds	r1, r1, #2
1fffed5e:	1e52      	subs	r2, r2, #1
1fffed60:	d1f4      	bne.n	0x1fffed4c
1fffed62:	bd10      	pop	{r4, pc}
1fffed64:	0049      	lsls	r1, r1, #1
1fffed66:	f101 4180 	add.w	r1, r1, #1073741824	@ 0x40000000
1fffed6a:	1c52      	adds	r2, r2, #1
1fffed6c:	f501 41c0 	add.w	r1, r1, #24576	@ 0x6000
1fffed70:	1052      	asrs	r2, r2, #1
1fffed72:	e004      	b.n	0x1fffed7e
1fffed74:	f851 3b04 	ldr.w	r3, [r1], #4
1fffed78:	1e52      	subs	r2, r2, #1
1fffed7a:	f820 3b02 	strh.w	r3, [r0], #2
1fffed7e:	d1f9      	bne.n	0x1fffed74
1fffed80:	4770      	bx	lr
1fffed82:	f850 1b04 	ldr.w	r1, [r0], #4
1fffed86:	b161      	cbz	r1, 0x1fffeda2
1fffed88:	f850 2b04 	ldr.w	r2, [r0], #4
1fffed8c:	07d3      	lsls	r3, r2, #31
1fffed8e:	bf44      	itt	mi
1fffed90:	f1a9 0301 	submi.w	r3, r9, #1
1fffed94:	189a      	addmi	r2, r3, r2
1fffed96:	2300      	movs	r3, #0
1fffed98:	f842 3b04 	str.w	r3, [r2], #4
1fffed9c:	1f09      	subs	r1, r1, #4
1fffed9e:	d1fa      	bne.n	0x1fffed96
1fffeda0:	e7ef      	b.n	0x1fffed82
1fffeda2:	4770      	bx	lr
1fffeda4:	b510      	push	{r4, lr}
1fffeda6:	f000 f81c 	bl	0x1fffede2
1fffedaa:	2801      	cmp	r0, #1
1fffedac:	d002      	beq.n	0x1fffedb4
1fffedae:	2803      	cmp	r0, #3
1fffedb0:	d005      	beq.n	0x1fffedbe
1fffedb2:	e013      	b.n	0x1fffeddc
1fffedb4:	f000 fa0a 	bl	0x1ffff1cc
1fffedb8:	f000 fa1c 	bl	0x1ffff1f4
1fffedbc:	e010      	b.n	0x1fffede0
1fffedbe:	f7fe fdea 	bl	0x1fffd996
1fffedc2:	4860      	ldr	r0, [pc, #384]	@ (0x1fffef44)
1fffedc4:	4c60      	ldr	r4, [pc, #384]	@ (0x1fffef48)
1fffedc6:	6801      	ldr	r1, [r0, #0]
1fffedc8:	6849      	ldr	r1, [r1, #4]
1fffedca:	6061      	str	r1, [r4, #4]
1fffedcc:	6021      	str	r1, [r4, #0]
1fffedce:	6800      	ldr	r0, [r0, #0]
1fffedd0:	6800      	ldr	r0, [r0, #0]
1fffedd2:	f7ff ffa7 	bl	0x1fffed24
1fffedd6:	6820      	ldr	r0, [r4, #0]
1fffedd8:	4780      	blx	r0
1fffedda:	e001      	b.n	0x1fffede0
1fffeddc:	f7ff ff98 	bl	0x1fffed10
1fffede0:	e7fe      	b.n	0x1fffede0
1fffede2:	e92d 41f0 	stmdb	sp!, {r4, r5, r6, r7, r8, lr}
1fffede6:	4859      	ldr	r0, [pc, #356]	@ (0x1fffef4c)
1fffede8:	f245 5155 	movw	r1, #21845	@ 0x5555
1fffedec:	6001      	str	r1, [r0, #0]
1fffedee:	2106      	movs	r1, #6
1fffedf0:	6041      	str	r1, [r0, #4]
1fffedf2:	f64a 21aa 	movw	r1, #43690	@ 0xaaaa
1fffedf6:	6001      	str	r1, [r0, #0]
1fffedf8:	f7ff f988 	bl	0x1fffe10c
1fffedfc:	f7ff f9bc 	bl	0x1fffe178
1fffee00:	4853      	ldr	r0, [pc, #332]	@ (0x1fffef50)
1fffee02:	4954      	ldr	r1, [pc, #336]	@ (0x1fffef54)
1fffee04:	4c54      	ldr	r4, [pc, #336]	@ (0x1fffef58)
1fffee06:	6001      	str	r1, [r0, #0]
1fffee08:	f7ff fca8 	bl	0x1fffe75c
1fffee0c:	2801      	cmp	r0, #1
1fffee0e:	d10d      	bne.n	0x1fffee2c
1fffee10:	4852      	ldr	r0, [pc, #328]	@ (0x1fffef5c)
1fffee12:	e004      	b.n	0x1fffee1e
1fffee14:	68e0      	ldr	r0, [r4, #12]
1fffee16:	2100      	movs	r1, #0
1fffee18:	7001      	strb	r1, [r0, #0]
1fffee1a:	68e0      	ldr	r0, [r4, #12]
1fffee1c:	1e40      	subs	r0, r0, #1
1fffee1e:	60e0      	str	r0, [r4, #12]
1fffee20:	68e0      	ldr	r0, [r4, #12]
1fffee22:	494f      	ldr	r1, [pc, #316]	@ (0x1fffef60)
1fffee24:	4288      	cmp	r0, r1
1fffee26:	d2f5      	bcs.n	0x1fffee14
1fffee28:	2000      	movs	r0, #0
1fffee2a:	60e0      	str	r0, [r4, #12]
1fffee2c:	f7ff ff68 	bl	0x1fffed00
1fffee30:	4d4c      	ldr	r5, [pc, #304]	@ (0x1fffef64)
1fffee32:	2004      	movs	r0, #4
1fffee34:	6028      	str	r0, [r5, #0]
1fffee36:	f44f 2000 	mov.w	r0, #524288	@ 0x80000
1fffee3a:	6068      	str	r0, [r5, #4]
1fffee3c:	484a      	ldr	r0, [pc, #296]	@ (0x1fffef68)
1fffee3e:	f04f 1103 	mov.w	r1, #196611	@ 0x30003
1fffee42:	61c1      	str	r1, [r0, #28]
1fffee44:	f44f 4180 	mov.w	r1, #16384	@ 0x4000
1fffee48:	6041      	str	r1, [r0, #4]
1fffee4a:	4948      	ldr	r1, [pc, #288]	@ (0x1fffef6c)
1fffee4c:	6081      	str	r1, [r0, #8]
1fffee4e:	4948      	ldr	r1, [pc, #288]	@ (0x1fffef70)
1fffee50:	6001      	str	r1, [r0, #0]
1fffee52:	f7ff fb44 	bl	0x1fffe4de
1fffee56:	f04f 4690 	mov.w	r6, #1207959552	@ 0x48000000
1fffee5a:	6830      	ldr	r0, [r6, #0]
1fffee5c:	4f45      	ldr	r7, [pc, #276]	@ (0x1fffef74)
1fffee5e:	f440 1020 	orr.w	r0, r0, #2621440	@ 0x280000
1fffee62:	6030      	str	r0, [r6, #0]
1fffee64:	68b0      	ldr	r0, [r6, #8]
1fffee66:	2128      	movs	r1, #40	@ 0x28
1fffee68:	f440 1070 	orr.w	r0, r0, #3932160	@ 0x3c0000
1fffee6c:	60b0      	str	r0, [r6, #8]
1fffee6e:	2014      	movs	r0, #20
1fffee70:	73b0      	strb	r0, [r6, #14]
1fffee72:	f44f 60ee 	mov.w	r0, #1904	@ 0x770
1fffee76:	84b0      	strh	r0, [r6, #36]	@ 0x24
1fffee78:	7039      	strb	r1, [r7, #0]
1fffee7a:	2100      	movs	r1, #0
1fffee7c:	70f9      	strb	r1, [r7, #3]
1fffee7e:	213c      	movs	r1, #60	@ 0x3c
1fffee80:	7239      	strb	r1, [r7, #8]
1fffee82:	2114      	movs	r1, #20
1fffee84:	7339      	strb	r1, [r7, #12]
1fffee86:	f8a7 0021 	strh.w	r0, [r7, #33]	@ 0x21
1fffee8a:	483b      	ldr	r0, [pc, #236]	@ (0x1fffef78)
1fffee8c:	7800      	ldrb	r0, [r0, #0]
1fffee8e:	b158      	cbz	r0, 0x1fffeea8
1fffee90:	483a      	ldr	r0, [pc, #232]	@ (0x1fffef7c)
1fffee92:	6801      	ldr	r1, [r0, #0]
1fffee94:	f021 0120 	bic.w	r1, r1, #32
1fffee98:	6001      	str	r1, [r0, #0]
1fffee9a:	f7fe fd75 	bl	0x1fffd988
1fffee9e:	e003      	b.n	0x1fffeea8
1fffeea0:	2000      	movs	r0, #0
1fffeea2:	6160      	str	r0, [r4, #20]
1fffeea4:	f7ff ff2c 	bl	0x1fffed00
1fffeea8:	69a0      	ldr	r0, [r4, #24]
1fffeeaa:	2800      	cmp	r0, #0
1fffeeac:	d145      	bne.n	0x1fffef3a
1fffeeae:	8a30      	ldrh	r0, [r6, #16]
1fffeeb0:	0540      	lsls	r0, r0, #21
1fffeeb2:	bf5c      	itt	pl
1fffeeb4:	2001      	movpl	r0, #1
1fffeeb6:	6120      	strpl	r0, [r4, #16]
1fffeeb8:	f8b7 000f 	ldrh.w	r0, [r7, #15]
1fffeebc:	0640      	lsls	r0, r0, #25
1fffeebe:	bf5c      	itt	pl
1fffeec0:	2001      	movpl	r0, #1
1fffeec2:	6160      	strpl	r0, [r4, #20]
1fffeec4:	6920      	ldr	r0, [r4, #16]
1fffeec6:	f8df 80b8 	ldr.w	r8, [pc, #184]	@ 0x1fffef80
1fffeeca:	2801      	cmp	r0, #1
1fffeecc:	d116      	bne.n	0x1fffeefc
1fffeece:	8a30      	ldrh	r0, [r6, #16]
1fffeed0:	0540      	lsls	r0, r0, #21
1fffeed2:	d513      	bpl.n	0x1fffeefc
1fffeed4:	2005      	movs	r0, #5
1fffeed6:	6028      	str	r0, [r5, #0]
1fffeed8:	4640      	mov	r0, r8
1fffeeda:	e001      	b.n	0x1fffeee0
1fffeedc:	b150      	cbz	r0, 0x1fffeef4
1fffeede:	1e40      	subs	r0, r0, #1
1fffeee0:	8a31      	ldrh	r1, [r6, #16]
1fffeee2:	0549      	lsls	r1, r1, #21
1fffeee4:	d4fa      	bmi.n	0x1fffeedc
1fffeee6:	b128      	cbz	r0, 0x1fffeef4
1fffeee8:	69a0      	ldr	r0, [r4, #24]
1fffeeea:	b918      	cbnz	r0, 0x1fffeef4
1fffeeec:	f000 f84a 	bl	0x1fffef84
1fffeef0:	6820      	ldr	r0, [r4, #0]
1fffeef2:	e01d      	b.n	0x1fffef30
1fffeef4:	2000      	movs	r0, #0
1fffeef6:	6120      	str	r0, [r4, #16]
1fffeef8:	f7ff ff02 	bl	0x1fffed00
1fffeefc:	6960      	ldr	r0, [r4, #20]
1fffeefe:	2801      	cmp	r0, #1
1fffef00:	d1d2      	bne.n	0x1fffeea8
1fffef02:	f8b7 000f 	ldrh.w	r0, [r7, #15]
1fffef06:	0640      	lsls	r0, r0, #25
1fffef08:	d5ce      	bpl.n	0x1fffeea8
1fffef0a:	2005      	movs	r0, #5
1fffef0c:	6028      	str	r0, [r5, #0]
1fffef0e:	4640      	mov	r0, r8
1fffef10:	e002      	b.n	0x1fffef18
1fffef12:	2800      	cmp	r0, #0
1fffef14:	d0c4      	beq.n	0x1fffeea0
1fffef16:	1e40      	subs	r0, r0, #1
1fffef18:	f8b7 100f 	ldrh.w	r1, [r7, #15]
1fffef1c:	0649      	lsls	r1, r1, #25
1fffef1e:	d4f8      	bmi.n	0x1fffef12
1fffef20:	2800      	cmp	r0, #0
1fffef22:	d0bd      	beq.n	0x1fffeea0
1fffef24:	69a0      	ldr	r0, [r4, #24]
1fffef26:	2800      	cmp	r0, #0
1fffef28:	d1ba      	bne.n	0x1fffeea0
1fffef2a:	f000 f82b 	bl	0x1fffef84
1fffef2e:	6860      	ldr	r0, [r4, #4]
1fffef30:	60a0      	str	r0, [r4, #8]
1fffef32:	f7ff fee5 	bl	0x1fffed00
1fffef36:	2001      	movs	r0, #1
1fffef38:	e002      	b.n	0x1fffef40
1fffef3a:	f7ff fee1 	bl	0x1fffed00
1fffef3e:	2003      	movs	r0, #3
1fffef40:	e8bd 81f0 	ldmia.w	sp!, {r4, r5, r6, r7, r8, pc}
1fffef44:	0184      	lsls	r4, r0, #6
1fffef46:	2000      	movs	r0, #0
1fffef48:	0e28      	lsrs	r0, r5, #24
1fffef4a:	2000      	movs	r0, #0
1fffef4c:	3000      	adds	r0, #0
1fffef4e:	4000      	ands	r0, r0
1fffef50:	ed08 e000 	stc	0, cr14, [r8, #-0]
1fffef54:	d800      	bhi.n	0x1fffef58
1fffef56:	1fff      	subs	r7, r7, #7
1fffef58:	0188      	lsls	r0, r1, #6
1fffef5a:	2000      	movs	r0, #0
1fffef5c:	9fff      	ldr	r7, [sp, #1020]	@ 0x3fc
1fffef5e:	2000      	movs	r0, #0
1fffef60:	1400      	asrs	r0, r0, #16
1fffef62:	2000      	movs	r0, #0
1fffef64:	e010      	b.n	0x1fffef88
1fffef66:	e000      	b.n	0x1fffef6a
1fffef68:	1014      	asrs	r4, r2, #32
1fffef6a:	4002      	ands	r2, r0
1fffef6c:	0000      	movs	r0, r0
1fffef6e:	1002      	asrs	r2, r0, #32
1fffef70:	0014      	movs	r4, r2
1fffef72:	0012      	movs	r2, r2
1fffef74:	0c01      	lsrs	r1, r0, #16
1fffef76:	4800      	ldr	r0, [pc, #0]	@ (0x1fffef78)
1fffef78:	0e30      	lsrs	r0, r6, #24
1fffef7a:	2000      	movs	r0, #0
1fffef7c:	0000      	movs	r0, r0
1fffef7e:	4001      	ands	r1, r0
1fffef80:	3ffa      	subs	r7, #250	@ 0xfa
1fffef82:	0002      	movs	r2, r0
1fffef84:	68a8      	ldr	r0, [r5, #8]
1fffef86:	2106      	movs	r1, #6
1fffef88:	f5c0 2000 	rsb	r0, r0, #524288	@ 0x80000
1fffef8c:	fbb0 f0f1 	udiv	r0, r0, r1
1fffef90:	60e0      	str	r0, [r4, #12]
1fffef92:	4770      	bx	lr
1fffef94:	b5f8      	push	{r3, r4, r5, r6, r7, lr}
1fffef96:	f648 74bf 	movw	r4, #36799	@ 0x8fbf
1fffef9a:	f64b 758f 	movw	r5, #49039	@ 0xbf8f
1fffef9e:	4e2b      	ldr	r6, [pc, #172]	@ (0x1ffff04c)
1fffefa0:	4f2b      	ldr	r7, [pc, #172]	@ (0x1ffff050)
1fffefa2:	482c      	ldr	r0, [pc, #176]	@ (0x1ffff054)
1fffefa4:	492c      	ldr	r1, [pc, #176]	@ (0x1ffff058)
1fffefa6:	6c7a      	ldr	r2, [r7, #68]	@ 0x44
1fffefa8:	800a      	strh	r2, [r1, #0]
1fffefaa:	0412      	lsls	r2, r2, #16
1fffefac:	d54d      	bpl.n	0x1ffff04a
1fffefae:	f647 72ff 	movw	r2, #32767	@ 0x7fff
1fffefb2:	647a      	str	r2, [r7, #68]	@ 0x44
1fffefb4:	880a      	ldrh	r2, [r1, #0]
1fffefb6:	f012 020f 	ands.w	r2, r2, #15
1fffefba:	7002      	strb	r2, [r0, #0]
1fffefbc:	d1f3      	bne.n	0x1fffefa6
1fffefbe:	683a      	ldr	r2, [r7, #0]
1fffefc0:	f402 5240 	and.w	r2, r2, #12288	@ 0x3000
1fffefc4:	8032      	strh	r2, [r6, #0]
1fffefc6:	683a      	ldr	r2, [r7, #0]
1fffefc8:	f002 0230 	and.w	r2, r2, #48	@ 0x30
1fffefcc:	6072      	str	r2, [r6, #4]
1fffefce:	683a      	ldr	r2, [r7, #0]
1fffefd0:	402a      	ands	r2, r5
1fffefd2:	f482 5200 	eor.w	r2, r2, #8192	@ 0x2000
1fffefd6:	603a      	str	r2, [r7, #0]
1fffefd8:	683a      	ldr	r2, [r7, #0]
1fffefda:	4022      	ands	r2, r4
1fffefdc:	f082 0220 	eor.w	r2, r2, #32
1fffefe0:	603a      	str	r2, [r7, #0]
1fffefe2:	880a      	ldrh	r2, [r1, #0]
1fffefe4:	06d2      	lsls	r2, r2, #27
1fffefe6:	d503      	bpl.n	0x1fffeff0
1fffefe8:	683a      	ldr	r2, [r7, #0]
1fffefea:	b292      	uxth	r2, r2
1fffefec:	0613      	lsls	r3, r2, #24
1fffefee:	d507      	bpl.n	0x1ffff000
1fffeff0:	6838      	ldr	r0, [r7, #0]
1fffeff2:	f648 710f 	movw	r1, #36623	@ 0x8f0f
1fffeff6:	4008      	ands	r0, r1
1fffeff8:	6038      	str	r0, [r7, #0]
1fffeffa:	f7ff fe0a 	bl	0x1fffec12
1fffeffe:	e00c      	b.n	0x1ffff01a
1ffff000:	0513      	lsls	r3, r2, #20
1ffff002:	d504      	bpl.n	0x1ffff00e
1ffff004:	f000 f82a 	bl	0x1ffff05c
1ffff008:	f7ff fdd0 	bl	0x1fffebac
1ffff00c:	e005      	b.n	0x1ffff01a
1ffff00e:	0412      	lsls	r2, r2, #16
1ffff010:	d5c9      	bpl.n	0x1fffefa6
1ffff012:	f000 f823 	bl	0x1ffff05c
1ffff016:	f7ff fe19 	bl	0x1fffec4c
1ffff01a:	6838      	ldr	r0, [r7, #0]
1ffff01c:	8831      	ldrh	r1, [r6, #0]
1ffff01e:	4028      	ands	r0, r5
1ffff020:	04ca      	lsls	r2, r1, #19
1ffff022:	bf48      	it	mi
1ffff024:	f480 5080 	eormi.w	r0, r0, #4096	@ 0x1000
1ffff028:	0489      	lsls	r1, r1, #18
1ffff02a:	bf48      	it	mi
1ffff02c:	f480 5000 	eormi.w	r0, r0, #8192	@ 0x2000
1ffff030:	6038      	str	r0, [r7, #0]
1ffff032:	6838      	ldr	r0, [r7, #0]
1ffff034:	6871      	ldr	r1, [r6, #4]
1ffff036:	4020      	ands	r0, r4
1ffff038:	06ca      	lsls	r2, r1, #27
1ffff03a:	bf48      	it	mi
1ffff03c:	f080 0010 	eormi.w	r0, r0, #16
1ffff040:	0689      	lsls	r1, r1, #26
1ffff042:	bf48      	it	mi
1ffff044:	f080 0020 	eormi.w	r0, r0, #32
1ffff048:	6038      	str	r0, [r7, #0]
1ffff04a:	bdf1      	pop	{r0, r4, r5, r6, r7, pc}
1ffff04c:	0e38      	lsrs	r0, r7, #24
1ffff04e:	2000      	movs	r0, #0
1ffff050:	5c00      	ldrb	r0, [r0, r0]
1ffff052:	4000      	ands	r0, r0
1ffff054:	0e54      	lsrs	r4, r2, #25
1ffff056:	2000      	movs	r0, #0
1ffff058:	0e52      	lsrs	r2, r2, #25
1ffff05a:	2000      	movs	r0, #0
1ffff05c:	6838      	ldr	r0, [r7, #0]
1ffff05e:	f640 718f 	movw	r1, #3983	@ 0xf8f
1ffff062:	4008      	ands	r0, r1
1ffff064:	6038      	str	r0, [r7, #0]
1ffff066:	4770      	bx	lr
1ffff068:	b570      	push	{r4, r5, r6, lr}
1ffff06a:	4d25      	ldr	r5, [pc, #148]	@ (0x1ffff100)
1ffff06c:	4c25      	ldr	r4, [pc, #148]	@ (0x1ffff104)
1ffff06e:	6828      	ldr	r0, [r5, #0]
1ffff070:	4e25      	ldr	r6, [pc, #148]	@ (0x1ffff108)
1ffff072:	8020      	strh	r0, [r4, #0]
1ffff074:	8820      	ldrh	r0, [r4, #0]
1ffff076:	8831      	ldrh	r1, [r6, #0]
1ffff078:	4008      	ands	r0, r1
1ffff07a:	0400      	lsls	r0, r0, #16
1ffff07c:	bf48      	it	mi
1ffff07e:	f7ff ff89 	blmi	0x1fffef94
1ffff082:	8820      	ldrh	r0, [r4, #0]
1ffff084:	8831      	ldrh	r1, [r6, #0]
1ffff086:	4008      	ands	r0, r1
1ffff088:	0540      	lsls	r0, r0, #21
1ffff08a:	d505      	bpl.n	0x1ffff098
1ffff08c:	f64f 30ff 	movw	r0, #64511	@ 0xfbff
1ffff090:	6028      	str	r0, [r5, #0]
1ffff092:	481e      	ldr	r0, [pc, #120]	@ (0x1ffff10c)
1ffff094:	6840      	ldr	r0, [r0, #4]
1ffff096:	4780      	blx	r0
1ffff098:	8830      	ldrh	r0, [r6, #0]
1ffff09a:	8821      	ldrh	r1, [r4, #0]
1ffff09c:	4001      	ands	r1, r0
1ffff09e:	0489      	lsls	r1, r1, #18
1ffff0a0:	bf44      	itt	mi
1ffff0a2:	f64d 71ff 	movwmi	r1, #57343	@ 0xdfff
1ffff0a6:	6029      	strmi	r1, [r5, #0]
1ffff0a8:	8821      	ldrh	r1, [r4, #0]
1ffff0aa:	4008      	ands	r0, r1
1ffff0ac:	04c0      	lsls	r0, r0, #19
1ffff0ae:	d505      	bpl.n	0x1ffff0bc
1ffff0b0:	f64e 70ff 	movw	r0, #61439	@ 0xefff
1ffff0b4:	6028      	str	r0, [r5, #0]
1ffff0b6:	2000      	movs	r0, #0
1ffff0b8:	f7ff f9ae 	bl	0x1fffe418
1ffff0bc:	8820      	ldrh	r0, [r4, #0]
1ffff0be:	8831      	ldrh	r1, [r6, #0]
1ffff0c0:	4008      	ands	r0, r1
1ffff0c2:	0500      	lsls	r0, r0, #20
1ffff0c4:	d50b      	bpl.n	0x1ffff0de
1ffff0c6:	4812      	ldr	r0, [pc, #72]	@ (0x1ffff110)
1ffff0c8:	7800      	ldrb	r0, [r0, #0]
1ffff0ca:	b110      	cbz	r0, 0x1ffff0d2
1ffff0cc:	f7ff f98c 	bl	0x1fffe3e8
1ffff0d0:	e002      	b.n	0x1ffff0d8
1ffff0d2:	2002      	movs	r0, #2
1ffff0d4:	f7ff f9a0 	bl	0x1fffe418
1ffff0d8:	f24f 70ff 	movw	r0, #63487	@ 0xf7ff
1ffff0dc:	6028      	str	r0, [r5, #0]
1ffff0de:	8820      	ldrh	r0, [r4, #0]
1ffff0e0:	8831      	ldrh	r1, [r6, #0]
1ffff0e2:	4008      	ands	r0, r1
1ffff0e4:	0580      	lsls	r0, r0, #22
1ffff0e6:	d509      	bpl.n	0x1ffff0fc
1ffff0e8:	f64f 50ff 	movw	r0, #65023	@ 0xfdff
1ffff0ec:	4909      	ldr	r1, [pc, #36]	@ (0x1ffff114)
1ffff0ee:	6028      	str	r0, [r5, #0]
1ffff0f0:	680a      	ldr	r2, [r1, #0]
1ffff0f2:	f640 20aa 	movw	r0, #2730	@ 0xaaa
1ffff0f6:	4282      	cmp	r2, r0
1ffff0f8:	bf18      	it	ne
1ffff0fa:	6008      	strne	r0, [r1, #0]
1ffff0fc:	bd70      	pop	{r4, r5, r6, pc}
1ffff0fe:	bf00      	nop
1ffff100:	5c44      	ldrb	r4, [r0, r1]
1ffff102:	4000      	ands	r0, r0
1ffff104:	0e52      	lsrs	r2, r2, #25
1ffff106:	2000      	movs	r0, #0
1ffff108:	0e50      	lsrs	r0, r2, #25
1ffff10a:	2000      	movs	r0, #0
1ffff10c:	0098      	lsls	r0, r3, #2
1ffff10e:	2000      	movs	r0, #0
1ffff110:	01e0      	lsls	r0, r4, #7
1ffff112:	2000      	movs	r0, #0
1ffff114:	01a0      	lsls	r0, r4, #6
1ffff116:	2000      	movs	r0, #0
1ffff118:	b510      	push	{r4, lr}
1ffff11a:	4908      	ldr	r1, [pc, #32]	@ (0x1ffff13c)
1ffff11c:	4479      	add	r1, pc
1ffff11e:	311c      	adds	r1, #28
1ffff120:	4c07      	ldr	r4, [pc, #28]	@ (0x1ffff140)
1ffff122:	447c      	add	r4, pc
1ffff124:	341a      	adds	r4, #26
1ffff126:	42a1      	cmp	r1, r4
1ffff128:	d006      	beq.n	0x1ffff138
1ffff12a:	1d08      	adds	r0, r1, #4
1ffff12c:	680a      	ldr	r2, [r1, #0]
1ffff12e:	1851      	adds	r1, r2, r1
1ffff130:	4788      	blx	r1
1ffff132:	4601      	mov	r1, r0
1ffff134:	42a1      	cmp	r1, r4
1ffff136:	d1f8      	bne.n	0x1ffff12a
1ffff138:	bd10      	pop	{r4, pc}
1ffff13a:	bf00      	nop
1ffff13c:	0008      	movs	r0, r1
1ffff13e:	0000      	movs	r0, r0
1ffff140:	0028      	movs	r0, r5
1ffff142:	0000      	movs	r0, r0
1ffff144:	fc3f ffff 	ldc2	15, cr15, [pc], #-1020	@ 0x1fffed4c
1ffff148:	0c74      	lsrs	r4, r6, #17
1ffff14a:	0000      	movs	r0, r0
1ffff14c:	01e4      	lsls	r4, r4, #7
1ffff14e:	2000      	movs	r0, #0
1ffff150:	0000      	movs	r0, r0
1ffff152:	0000      	movs	r0, r0
1ffff154:	eeaf ffff 	mcr	15, 5, pc, cr15, cr15, {7}	@ <UNPREDICTABLE>
1ffff158:	01e4      	lsls	r4, r4, #7
1ffff15a:	0000      	movs	r0, r0
1ffff15c:	0420      	lsls	r0, r4, #16
1ffff15e:	0000      	movs	r0, r0
1ffff160:	0000      	movs	r0, r0
1ffff162:	2000      	movs	r0, #0
1ffff164:	0000      	movs	r0, r0
1ffff166:	0000      	movs	r0, r0
1ffff168:	f000 f809 	bl	0x1ffff17e
1ffff16c:	2800      	cmp	r0, #0
1ffff16e:	d001      	beq.n	0x1ffff174
1ffff170:	f7ff ffd2 	bl	0x1ffff118
1ffff174:	2000      	movs	r0, #0
1ffff176:	f7ff fe15 	bl	0x1fffeda4
1ffff17a:	f000 f802 	bl	0x1ffff182
1ffff17e:	2001      	movs	r0, #1
1ffff180:	4770      	bx	lr
1ffff182:	f000 b801 	b.w	0x1ffff188
1ffff186:	0000      	movs	r0, r0
1ffff188:	4607      	mov	r7, r0
1ffff18a:	4638      	mov	r0, r7
1ffff18c:	f000 f802 	bl	0x1ffff194
1ffff190:	e7fb      	b.n	0x1ffff18a
1ffff192:	0000      	movs	r0, r0
1ffff194:	b580      	push	{r7, lr}
1ffff196:	46c0      	nop			@ (mov r8, r8)
1ffff198:	46c0      	nop			@ (mov r8, r8)
1ffff19a:	4a02      	ldr	r2, [pc, #8]	@ (0x1ffff1a4)
1ffff19c:	0011      	movs	r1, r2
1ffff19e:	2018      	movs	r0, #24
1ffff1a0:	beab      	bkpt	0x00ab
1ffff1a2:	e7fb      	b.n	0x1ffff19c
1ffff1a4:	0026      	movs	r6, r4
1ffff1a6:	0002      	movs	r2, r0
1ffff1a8:	46c0      	nop			@ (mov r8, r8)
1ffff1aa:	46c0      	nop			@ (mov r8, r8)
1ffff1ac:	46c0      	nop			@ (mov r8, r8)
1ffff1ae:	46c0      	nop			@ (mov r8, r8)
1ffff1b0:	f7ff ffda 	bl	0x1ffff168
1ffff1b4:	f7ff bdac 	b.w	0x1fffed10
1ffff1b8:	f7ff bf56 	b.w	0x1ffff068
1ffff1bc:	4800      	ldr	r0, [pc, #0]	@ (0x1ffff1c0)
1ffff1be:	4700      	bx	r0
1ffff1c0:	f1a9 1fff 	sub.w	pc, r9, #16711935	@ 0xff00ff
1ffff1c4:	f7ff bff6 	b.w	0x1ffff1b4
1ffff1c8:	f7ff bff6 	b.w	0x1ffff1b8
1ffff1cc:	b538      	push	{r3, r4, r5, lr}
1ffff1ce:	f7ff fdad 	bl	0x1fffed2c
1ffff1d2:	4dcf      	ldr	r5, [pc, #828]	@ (0x1ffff510)
1ffff1d4:	4ccf      	ldr	r4, [pc, #828]	@ (0x1ffff514)
1ffff1d6:	6828      	ldr	r0, [r5, #0]
1ffff1d8:	6821      	ldr	r1, [r4, #0]
1ffff1da:	2207      	movs	r2, #7
1ffff1dc:	fbb1 f1f2 	udiv	r1, r1, r2
1ffff1e0:	8181      	strh	r1, [r0, #12]
1ffff1e2:	f241 410d 	movw	r1, #5133	@ 0x140d
1ffff1e6:	6001      	str	r1, [r0, #0]
1ffff1e8:	f000 f8e2 	bl	0x1ffff3b0
1ffff1ec:	6828      	ldr	r0, [r5, #0]
1ffff1ee:	8c80      	ldrh	r0, [r0, #36]	@ 0x24
1ffff1f0:	6020      	str	r0, [r4, #0]
1ffff1f2:	bd31      	pop	{r0, r4, r5, pc}
1ffff1f4:	b570      	push	{r4, r5, r6, lr}
1ffff1f6:	f20f 3474 	addw	r4, pc, #884	@ 0x374
1ffff1fa:	e00d      	b.n	0x1ffff218
1ffff1fc:	f000 f8d8 	bl	0x1ffff3b0
1ffff200:	2031      	movs	r0, #49	@ 0x31
1ffff202:	f000 f97e 	bl	0x1ffff502
1ffff206:	2000      	movs	r0, #0
1ffff208:	f000 f97b 	bl	0x1ffff502
1ffff20c:	2000      	movs	r0, #0
1ffff20e:	f000 f978 	bl	0x1ffff502
1ffff212:	2079      	movs	r0, #121	@ 0x79
1ffff214:	f000 f975 	bl	0x1ffff502
1ffff218:	48bf      	ldr	r0, [pc, #764]	@ (0x1ffff518)
1ffff21a:	f64a 21aa 	movw	r1, #43690	@ 0xaaaa
1ffff21e:	6001      	str	r1, [r0, #0]
1ffff220:	f000 f962 	bl	0x1ffff4e8
1ffff224:	4605      	mov	r5, r0
1ffff226:	f000 f95f 	bl	0x1ffff4e8
1ffff22a:	4068      	eors	r0, r5
1ffff22c:	28ff      	cmp	r0, #255	@ 0xff
1ffff22e:	d145      	bne.n	0x1ffff2bc
1ffff230:	b1a5      	cbz	r5, 0x1ffff25c
1ffff232:	2d01      	cmp	r5, #1
1ffff234:	d0e2      	beq.n	0x1ffff1fc
1ffff236:	2d02      	cmp	r5, #2
1ffff238:	d017      	beq.n	0x1ffff26a
1ffff23a:	2d11      	cmp	r5, #17
1ffff23c:	d01f      	beq.n	0x1ffff27e
1ffff23e:	2d21      	cmp	r5, #33	@ 0x21
1ffff240:	d03e      	beq.n	0x1ffff2c0
1ffff242:	2d31      	cmp	r5, #49	@ 0x31
1ffff244:	d054      	beq.n	0x1ffff2f0
1ffff246:	2d44      	cmp	r5, #68	@ 0x44
1ffff248:	d055      	beq.n	0x1ffff2f6
1ffff24a:	2d63      	cmp	r5, #99	@ 0x63
1ffff24c:	d056      	beq.n	0x1ffff2fc
1ffff24e:	2d73      	cmp	r5, #115	@ 0x73
1ffff250:	d057      	beq.n	0x1ffff302
1ffff252:	2d82      	cmp	r5, #130	@ 0x82
1ffff254:	d063      	beq.n	0x1ffff31e
1ffff256:	2d92      	cmp	r5, #146	@ 0x92
1ffff258:	d069      	beq.n	0x1ffff32e
1ffff25a:	e02f      	b.n	0x1ffff2bc
1ffff25c:	5d28      	ldrb	r0, [r5, r4]
1ffff25e:	f000 f950 	bl	0x1ffff502
1ffff262:	1c6d      	adds	r5, r5, #1
1ffff264:	2d0f      	cmp	r5, #15
1ffff266:	d3f9      	bcc.n	0x1ffff25c
1ffff268:	e7d6      	b.n	0x1ffff218
1ffff26a:	f000 f8a1 	bl	0x1ffff3b0
1ffff26e:	2001      	movs	r0, #1
1ffff270:	f000 f947 	bl	0x1ffff502
1ffff274:	2004      	movs	r0, #4
1ffff276:	f000 f944 	bl	0x1ffff502
1ffff27a:	2022      	movs	r0, #34	@ 0x22
1ffff27c:	e7c7      	b.n	0x1ffff20e
1ffff27e:	f000 f94f 	bl	0x1ffff520
1ffff282:	4605      	mov	r5, r0
1ffff284:	f1b5 3f55 	cmp.w	r5, #1431655765	@ 0x55555555
1ffff288:	d018      	beq.n	0x1ffff2bc
1ffff28a:	f7ff f8ff 	bl	0x1fffe48c
1ffff28e:	2801      	cmp	r0, #1
1ffff290:	d014      	beq.n	0x1ffff2bc
1ffff292:	f000 f88d 	bl	0x1ffff3b0
1ffff296:	f000 f927 	bl	0x1ffff4e8
1ffff29a:	4606      	mov	r6, r0
1ffff29c:	f000 f924 	bl	0x1ffff4e8
1ffff2a0:	43f1      	mvns	r1, r6
1ffff2a2:	b2c9      	uxtb	r1, r1
1ffff2a4:	4288      	cmp	r0, r1
1ffff2a6:	d109      	bne.n	0x1ffff2bc
1ffff2a8:	f000 f882 	bl	0x1ffff3b0
1ffff2ac:	1c76      	adds	r6, r6, #1
1ffff2ae:	f815 0b01 	ldrb.w	r0, [r5], #1
1ffff2b2:	f000 f926 	bl	0x1ffff502
1ffff2b6:	1e76      	subs	r6, r6, #1
1ffff2b8:	d1f9      	bne.n	0x1ffff2ae
1ffff2ba:	e7ad      	b.n	0x1ffff218
1ffff2bc:	201f      	movs	r0, #31
1ffff2be:	e7a9      	b.n	0x1ffff214
1ffff2c0:	f000 f92e 	bl	0x1ffff520
1ffff2c4:	4605      	mov	r5, r0
1ffff2c6:	f1b5 3f55 	cmp.w	r5, #1431655765	@ 0x55555555
1ffff2ca:	d0f7      	beq.n	0x1ffff2bc
1ffff2cc:	f7ff f8de 	bl	0x1fffe48c
1ffff2d0:	2802      	cmp	r0, #2
1ffff2d2:	bf18      	it	ne
1ffff2d4:	2803      	cmpne	r0, #3
1ffff2d6:	d1f1      	bne.n	0x1ffff2bc
1ffff2d8:	f000 f86a 	bl	0x1ffff3b0
1ffff2dc:	f7fe fef4 	bl	0x1fffe0c8
1ffff2e0:	f7ff fd28 	bl	0x1fffed34
1ffff2e4:	686e      	ldr	r6, [r5, #4]
1ffff2e6:	6828      	ldr	r0, [r5, #0]
1ffff2e8:	f7ff fd1c 	bl	0x1fffed24
1ffff2ec:	47b0      	blx	r6
1ffff2ee:	e793      	b.n	0x1ffff218
1ffff2f0:	f000 f827 	bl	0x1ffff342
1ffff2f4:	e790      	b.n	0x1ffff218
1ffff2f6:	f000 f85d 	bl	0x1ffff3b4
1ffff2fa:	e78d      	b.n	0x1ffff218
1ffff2fc:	f000 f8b3 	bl	0x1ffff466
1ffff300:	e78a      	b.n	0x1ffff218
1ffff302:	f7ff fa2b 	bl	0x1fffe75c
1ffff306:	b948      	cbnz	r0, 0x1ffff31c
1ffff308:	f000 f852 	bl	0x1ffff3b0
1ffff30c:	2000      	movs	r0, #0
1ffff30e:	f7ff f9de 	bl	0x1fffe6ce
1ffff312:	f000 f84d 	bl	0x1ffff3b0
1ffff316:	f7ff fa42 	bl	0x1fffe79e
1ffff31a:	e77d      	b.n	0x1ffff218
1ffff31c:	e7ce      	b.n	0x1ffff2bc
1ffff31e:	f7ff fa1d 	bl	0x1fffe75c
1ffff322:	b918      	cbnz	r0, 0x1ffff32c
1ffff324:	f000 f844 	bl	0x1ffff3b0
1ffff328:	2001      	movs	r0, #1
1ffff32a:	e7f0      	b.n	0x1ffff30e
1ffff32c:	e7c6      	b.n	0x1ffff2bc
1ffff32e:	f000 f83f 	bl	0x1ffff3b0
1ffff332:	2000      	movs	r0, #0
1ffff334:	f7ff f9cb 	bl	0x1fffe6ce
1ffff338:	f000 f83a 	bl	0x1ffff3b0
1ffff33c:	f7ff f8c7 	bl	0x1fffe4ce
1ffff340:	e7e9      	b.n	0x1ffff316
1ffff342:	e92d 47f0 	stmdb	sp!, {r4, r5, r6, r7, r8, r9, sl, lr}
1ffff346:	f000 f8eb 	bl	0x1ffff520
1ffff34a:	4680      	mov	r8, r0
1ffff34c:	f1b8 3f55 	cmp.w	r8, #1431655765	@ 0x55555555
1ffff350:	d01c      	beq.n	0x1ffff38c
1ffff352:	f7ff f89b 	bl	0x1fffe48c
1ffff356:	4605      	mov	r5, r0
1ffff358:	2d01      	cmp	r5, #1
1ffff35a:	bf18      	it	ne
1ffff35c:	2d05      	cmpne	r5, #5
1ffff35e:	d015      	beq.n	0x1ffff38c
1ffff360:	f000 f826 	bl	0x1ffff3b0
1ffff364:	f8df 91b4 	ldr.w	r9, [pc, #436]	@ 0x1ffff51c
1ffff368:	46ca      	mov	sl, r9
1ffff36a:	f000 f8bd 	bl	0x1ffff4e8
1ffff36e:	1c44      	adds	r4, r0, #1
1ffff370:	4606      	mov	r6, r0
1ffff372:	4627      	mov	r7, r4
1ffff374:	e005      	b.n	0x1ffff382
1ffff376:	f000 f8b7 	bl	0x1ffff4e8
1ffff37a:	4046      	eors	r6, r0
1ffff37c:	f80a 0b01 	strb.w	r0, [sl], #1
1ffff380:	1e7f      	subs	r7, r7, #1
1ffff382:	d1f8      	bne.n	0x1ffff376
1ffff384:	f000 f8b0 	bl	0x1ffff4e8
1ffff388:	42b0      	cmp	r0, r6
1ffff38a:	d002      	beq.n	0x1ffff392
1ffff38c:	e8bd 47f0 	ldmia.w	sp!, {r4, r5, r6, r7, r8, r9, sl, lr}
1ffff390:	e0a8      	b.n	0x1ffff4e4
1ffff392:	4622      	mov	r2, r4
1ffff394:	4649      	mov	r1, r9
1ffff396:	4640      	mov	r0, r8
1ffff398:	f7ff f8b5 	bl	0x1fffe506
1ffff39c:	f000 f808 	bl	0x1ffff3b0
1ffff3a0:	2d04      	cmp	r5, #4
1ffff3a2:	bf04      	itt	eq
1ffff3a4:	e8bd 47f0 	ldmiaeq.w	sp!, {r4, r5, r6, r7, r8, r9, sl, lr}
1ffff3a8:	f7ff b9f9 	beq.w	0x1fffe79e
1ffff3ac:	e8bd 87f0 	ldmia.w	sp!, {r4, r5, r6, r7, r8, r9, sl, pc}
1ffff3b0:	2079      	movs	r0, #121	@ 0x79
1ffff3b2:	e0a6      	b.n	0x1ffff502
1ffff3b4:	e92d 43f8 	stmdb	sp!, {r3, r4, r5, r6, r7, r8, r9, lr}
1ffff3b8:	f7ff f9d0 	bl	0x1fffe75c
1ffff3bc:	2800      	cmp	r0, #0
1ffff3be:	d13c      	bne.n	0x1ffff43a
1ffff3c0:	f7ff fff6 	bl	0x1ffff3b0
1ffff3c4:	f000 f890 	bl	0x1ffff4e8
1ffff3c8:	4604      	mov	r4, r0
1ffff3ca:	f000 f88d 	bl	0x1ffff4e8
1ffff3ce:	ea40 2004 	orr.w	r0, r0, r4, lsl #8
1ffff3d2:	4601      	mov	r1, r0
1ffff3d4:	f64f 72f0 	movw	r2, #65520	@ 0xfff0
1ffff3d8:	ea02 0301 	and.w	r3, r2, r1
1ffff3dc:	4293      	cmp	r3, r2
1ffff3de:	d10c      	bne.n	0x1ffff3fa
1ffff3e0:	f64f 71ff 	movw	r1, #65535	@ 0xffff
1ffff3e4:	4288      	cmp	r0, r1
1ffff3e6:	d105      	bne.n	0x1ffff3f4
1ffff3e8:	f000 f87e 	bl	0x1ffff4e8
1ffff3ec:	bb28      	cbnz	r0, 0x1ffff43a
1ffff3ee:	f7ff f927 	bl	0x1fffe640
1ffff3f2:	e034      	b.n	0x1ffff45e
1ffff3f4:	f000 f878 	bl	0x1ffff4e8
1ffff3f8:	e01f      	b.n	0x1ffff43a
1ffff3fa:	f8df 9120 	ldr.w	r9, [pc, #288]	@ 0x1ffff51c
1ffff3fe:	b2ca      	uxtb	r2, r1
1ffff400:	1c4f      	adds	r7, r1, #1
1ffff402:	ea82 2410 	eor.w	r4, r2, r0, lsr #8
1ffff406:	46c8      	mov	r8, r9
1ffff408:	003e      	movs	r6, r7
1ffff40a:	e010      	b.n	0x1ffff42e
1ffff40c:	f000 f86c 	bl	0x1ffff4e8
1ffff410:	4605      	mov	r5, r0
1ffff412:	406c      	eors	r4, r5
1ffff414:	f000 f868 	bl	0x1ffff4e8
1ffff418:	ea40 2005 	orr.w	r0, r0, r5, lsl #8
1ffff41c:	b2c1      	uxtb	r1, r0
1ffff41e:	404c      	eors	r4, r1
1ffff420:	f44f 7100 	mov.w	r1, #512	@ 0x200
1ffff424:	428e      	cmp	r6, r1
1ffff426:	bf38      	it	cc
1ffff428:	f828 0b02 	strhcc.w	r0, [r8], #2
1ffff42c:	1e76      	subs	r6, r6, #1
1ffff42e:	d1ed      	bne.n	0x1ffff40c
1ffff430:	f000 f85a 	bl	0x1ffff4e8
1ffff434:	b2e1      	uxtb	r1, r4
1ffff436:	4288      	cmp	r0, r1
1ffff438:	d001      	beq.n	0x1ffff43e
1ffff43a:	201f      	movs	r0, #31
1ffff43c:	e010      	b.n	0x1ffff460
1ffff43e:	46c8      	mov	r8, r9
1ffff440:	463e      	mov	r6, r7
1ffff442:	e007      	b.n	0x1ffff454
1ffff444:	f838 0b02 	ldrh.w	r0, [r8], #2
1ffff448:	02c0      	lsls	r0, r0, #11
1ffff44a:	f100 6000 	add.w	r0, r0, #134217728	@ 0x8000000
1ffff44e:	f7ff f8e4 	bl	0x1fffe61a
1ffff452:	1e76      	subs	r6, r6, #1
1ffff454:	b11e      	cbz	r6, 0x1ffff45e
1ffff456:	f44f 7000 	mov.w	r0, #512	@ 0x200
1ffff45a:	4286      	cmp	r6, r0
1ffff45c:	d3f2      	bcc.n	0x1ffff444
1ffff45e:	2079      	movs	r0, #121	@ 0x79
1ffff460:	e8bd 43f2 	ldmia.w	sp!, {r1, r4, r5, r6, r7, r8, r9, lr}
1ffff464:	e04d      	b.n	0x1ffff502
1ffff466:	e92d 43f8 	stmdb	sp!, {r3, r4, r5, r6, r7, r8, r9, lr}
1ffff46a:	2600      	movs	r6, #0
1ffff46c:	f7ff f976 	bl	0x1fffe75c
1ffff470:	b9b8      	cbnz	r0, 0x1ffff4a2
1ffff472:	f7ff ff9d 	bl	0x1ffff3b0
1ffff476:	f000 f837 	bl	0x1ffff4e8
1ffff47a:	f8df 90a0 	ldr.w	r9, [pc, #160]	@ 0x1ffff51c
1ffff47e:	f110 0801 	adds.w	r8, r0, #1
1ffff482:	464c      	mov	r4, r9
1ffff484:	4607      	mov	r7, r0
1ffff486:	4645      	mov	r5, r8
1ffff488:	e005      	b.n	0x1ffff496
1ffff48a:	f000 f82d 	bl	0x1ffff4e8
1ffff48e:	4047      	eors	r7, r0
1ffff490:	f804 0b01 	strb.w	r0, [r4], #1
1ffff494:	1e6d      	subs	r5, r5, #1
1ffff496:	d1f8      	bne.n	0x1ffff48a
1ffff498:	f000 f826 	bl	0x1ffff4e8
1ffff49c:	b2f9      	uxtb	r1, r7
1ffff49e:	4288      	cmp	r0, r1
1ffff4a0:	d002      	beq.n	0x1ffff4a8
1ffff4a2:	e8bd 43f2 	ldmia.w	sp!, {r1, r4, r5, r6, r7, r8, r9, lr}
1ffff4a6:	e01d      	b.n	0x1ffff4e4
1ffff4a8:	4645      	mov	r5, r8
1ffff4aa:	2101      	movs	r1, #1
1ffff4ac:	464c      	mov	r4, r9
1ffff4ae:	2d00      	cmp	r5, #0
1ffff4b0:	e003      	b.n	0x1ffff4ba
1ffff4b2:	1c64      	adds	r4, r4, #1
1ffff4b4:	f046 4600 	orr.w	r6, r6, #2147483648	@ 0x80000000
1ffff4b8:	1e6d      	subs	r5, r5, #1
1ffff4ba:	d008      	beq.n	0x1ffff4ce
1ffff4bc:	7820      	ldrb	r0, [r4, #0]
1ffff4be:	281f      	cmp	r0, #31
1ffff4c0:	d2f7      	bcs.n	0x1ffff4b2
1ffff4c2:	f814 0b01 	ldrb.w	r0, [r4], #1
1ffff4c6:	fa01 f000 	lsl.w	r0, r1, r0
1ffff4ca:	4306      	orrs	r6, r0
1ffff4cc:	e7f4      	b.n	0x1ffff4b8
1ffff4ce:	f7ff f806 	bl	0x1fffe4de
1ffff4d2:	4630      	mov	r0, r6
1ffff4d4:	f7ff f8c7 	bl	0x1fffe666
1ffff4d8:	f7ff ff6a 	bl	0x1ffff3b0
1ffff4dc:	e8bd 43f1 	ldmia.w	sp!, {r0, r4, r5, r6, r7, r8, r9, lr}
1ffff4e0:	f7ff b95d 	b.w	0x1fffe79e
1ffff4e4:	201f      	movs	r0, #31
1ffff4e6:	e00c      	b.n	0x1ffff502
1ffff4e8:	4809      	ldr	r0, [pc, #36]	@ (0x1ffff510)
1ffff4ea:	f64a 22aa 	movw	r2, #43690	@ 0xaaaa
1ffff4ee:	6800      	ldr	r0, [r0, #0]
1ffff4f0:	e001      	b.n	0x1ffff4f6
1ffff4f2:	4909      	ldr	r1, [pc, #36]	@ (0x1ffff518)
1ffff4f4:	600a      	str	r2, [r1, #0]
1ffff4f6:	69c1      	ldr	r1, [r0, #28]
1ffff4f8:	0689      	lsls	r1, r1, #26
1ffff4fa:	d5fa      	bpl.n	0x1ffff4f2
1ffff4fc:	8c80      	ldrh	r0, [r0, #36]	@ 0x24
1ffff4fe:	b2c0      	uxtb	r0, r0
1ffff500:	4770      	bx	lr
1ffff502:	4903      	ldr	r1, [pc, #12]	@ (0x1ffff510)
1ffff504:	6809      	ldr	r1, [r1, #0]
1ffff506:	8508      	strh	r0, [r1, #40]	@ 0x28
1ffff508:	69c8      	ldr	r0, [r1, #28]
1ffff50a:	0640      	lsls	r0, r0, #25
1ffff50c:	d5fc      	bpl.n	0x1ffff508
1ffff50e:	4770      	bx	lr
1ffff510:	0190      	lsls	r0, r2, #6
1ffff512:	2000      	movs	r0, #0
1ffff514:	0194      	lsls	r4, r2, #6
1ffff516:	2000      	movs	r0, #0
1ffff518:	3000      	adds	r0, #0
1ffff51a:	4000      	ands	r0, r0
1ffff51c:	09e4      	lsrs	r4, r4, #7
1ffff51e:	2000      	movs	r0, #0
1ffff520:	b5f8      	push	{r3, r4, r5, r6, r7, lr}
1ffff522:	f7ff f91b 	bl	0x1fffe75c
1ffff526:	b9e8      	cbnz	r0, 0x1ffff564
1ffff528:	2079      	movs	r0, #121	@ 0x79
1ffff52a:	f7ff ffea 	bl	0x1ffff502
1ffff52e:	f7ff ffdb 	bl	0x1ffff4e8
1ffff532:	4604      	mov	r4, r0
1ffff534:	f7ff ffd8 	bl	0x1ffff4e8
1ffff538:	0401      	lsls	r1, r0, #16
1ffff53a:	ea41 6504 	orr.w	r5, r1, r4, lsl #24
1ffff53e:	4044      	eors	r4, r0
1ffff540:	f7ff ffd2 	bl	0x1ffff4e8
1ffff544:	4606      	mov	r6, r0
1ffff546:	f7ff ffcf 	bl	0x1ffff4e8
1ffff54a:	4607      	mov	r7, r0
1ffff54c:	ea47 2006 	orr.w	r0, r7, r6, lsl #8
1ffff550:	4305      	orrs	r5, r0
1ffff552:	f7ff ffc9 	bl	0x1ffff4e8
1ffff556:	ea86 0104 	eor.w	r1, r6, r4
1ffff55a:	4079      	eors	r1, r7
1ffff55c:	4288      	cmp	r0, r1
1ffff55e:	d101      	bne.n	0x1ffff564
1ffff560:	4628      	mov	r0, r5
1ffff562:	bdf2      	pop	{r1, r4, r5, r6, r7, pc}
1ffff564:	f04f 3055 	mov.w	r0, #1431655765	@ 0x55555555
1ffff568:	bdf2      	pop	{r1, r4, r5, r6, r7, pc}
1ffff56a:	0000      	movs	r0, r0
1ffff56c:	0b79      	lsrs	r1, r7, #13
1ffff56e:	0031      	movs	r1, r6
1ffff570:	0201      	lsls	r1, r0, #8
1ffff572:	2111      	movs	r1, #17
1ffff574:	4431      	add	r1, r6
1ffff576:	7363      	strb	r3, [r4, #13]
1ffff578:	9282      	str	r2, [sp, #520]	@ 0x208
1ffff57a:	0079      	lsls	r1, r7, #1
1ffff57c:	0350      	lsls	r0, r2, #13
1ffff57e:	0040      	lsls	r0, r0, #1
1ffff580:	0049      	lsls	r1, r1, #1
1ffff582:	006e      	lsls	r6, r5, #1
1ffff584:	0074      	lsls	r4, r6, #1
1ffff586:	0065      	lsls	r5, r4, #1
1ffff588:	0072      	lsls	r2, r6, #1
1ffff58a:	006e      	lsls	r6, r5, #1
1ffff58c:	0061      	lsls	r1, r4, #1
1ffff58e:	006c      	lsls	r4, r5, #1
1ffff590:	0020      	movs	r0, r4
1ffff592:	0046      	lsls	r6, r0, #1
1ffff594:	006c      	lsls	r4, r5, #1
1ffff596:	0061      	lsls	r1, r4, #1
1ffff598:	0073      	lsls	r3, r6, #1
1ffff59a:	0068      	lsls	r0, r5, #1
1ffff59c:	0020      	movs	r0, r4
1ffff59e:	0020      	movs	r0, r4
1ffff5a0:	002f      	movs	r7, r5
1ffff5a2:	0030      	movs	r0, r6
1ffff5a4:	0078      	lsls	r0, r7, #1
1ffff5a6:	0030      	movs	r0, r6
1ffff5a8:	0038      	movs	r0, r7
1ffff5aa:	0030      	movs	r0, r6
1ffff5ac:	0030      	movs	r0, r6
1ffff5ae:	0030      	movs	r0, r6
1ffff5b0:	0030      	movs	r0, r6
1ffff5b2:	0030      	movs	r0, r6
1ffff5b4:	0030      	movs	r0, r6
1ffff5b6:	002f      	movs	r7, r5
1ffff5b8:	0031      	movs	r1, r6
1ffff5ba:	0032      	movs	r2, r6
1ffff5bc:	0038      	movs	r0, r7
1ffff5be:	002a      	movs	r2, r5
1ffff5c0:	0030      	movs	r0, r6
1ffff5c2:	0030      	movs	r0, r6
1ffff5c4:	0030      	movs	r0, r6
1ffff5c6:	0032      	movs	r2, r6
1ffff5c8:	004b      	lsls	r3, r1, #1
1ffff5ca:	0067      	lsls	r7, r4, #1
1ffff5cc:	0348      	lsls	r0, r1, #13
1ffff5ce:	0040      	lsls	r0, r0, #1
1ffff5d0:	004f      	lsls	r7, r1, #1
1ffff5d2:	0070      	lsls	r0, r6, #1
1ffff5d4:	0074      	lsls	r4, r6, #1
1ffff5d6:	0069      	lsls	r1, r5, #1
1ffff5d8:	006f      	lsls	r7, r5, #1
1ffff5da:	006e      	lsls	r6, r5, #1
1ffff5dc:	0020      	movs	r0, r4
1ffff5de:	0042      	lsls	r2, r0, #1
1ffff5e0:	0079      	lsls	r1, r7, #1
1ffff5e2:	0074      	lsls	r4, r6, #1
1ffff5e4:	0065      	lsls	r5, r4, #1
1ffff5e6:	0073      	lsls	r3, r6, #1
1ffff5e8:	0020      	movs	r0, r4
1ffff5ea:	0020      	movs	r0, r4
1ffff5ec:	002f      	movs	r7, r5
1ffff5ee:	0030      	movs	r0, r6
1ffff5f0:	0078      	lsls	r0, r7, #1
1ffff5f2:	0031      	movs	r1, r6
1ffff5f4:	0046      	lsls	r6, r0, #1
1ffff5f6:	0046      	lsls	r6, r0, #1
1ffff5f8:	0046      	lsls	r6, r0, #1
1ffff5fa:	0046      	lsls	r6, r0, #1
1ffff5fc:	0038      	movs	r0, r7
1ffff5fe:	0030      	movs	r0, r6
1ffff600:	0030      	movs	r0, r6
1ffff602:	002f      	movs	r7, r5
1ffff604:	0030      	movs	r0, r6
1ffff606:	0031      	movs	r1, r6
1ffff608:	002a      	movs	r2, r5
1ffff60a:	0030      	movs	r0, r6
1ffff60c:	0031      	movs	r1, r6
1ffff60e:	0036      	movs	r6, r6
1ffff610:	0020      	movs	r0, r4
1ffff612:	0065      	lsls	r5, r4, #1
1ffff614:	d9bf      	bls.n	0x1ffff596
1ffff616:	1fff      	subs	r7, r7, #7
1ffff618:	d9f9      	bls.n	0x1ffff60e
1ffff61a:	1fff      	subs	r7, r7, #7
1ffff61c:	dac1      	bge.n	0x1ffff5a2
1ffff61e:	1fff      	subs	r7, r7, #7
1ffff620:	dac3      	bge.n	0x1ffff5aa
1ffff622:	1fff      	subs	r7, r7, #7
1ffff624:	dbdb      	blt.n	0x1ffff5de
1ffff626:	1fff      	subs	r7, r7, #7
1ffff628:	dc3f      	bgt.n	0x1ffff6aa
1ffff62a:	1fff      	subs	r7, r7, #7
1ffff62c:	dcf3      	bgt.n	0x1ffff616
1ffff62e:	1fff      	subs	r7, r7, #7
1ffff630:	dccf      	bgt.n	0x1ffff5d2
1ffff632:	1fff      	subs	r7, r7, #7
1ffff634:	dcd5      	bgt.n	0x1ffff5e2
1ffff636:	1fff      	subs	r7, r7, #7
1ffff638:	dcdb      	bgt.n	0x1ffff5f2
1ffff63a:	1fff      	subs	r7, r7, #7
1ffff63c:	0000      	movs	r0, r0
1ffff63e:	0000      	movs	r0, r0
1ffff640:	0040      	lsls	r0, r0, #1
1ffff642:	0000      	movs	r0, r0
1ffff644:	01dc      	lsls	r4, r3, #7
1ffff646:	2000      	movs	r0, #0
1ffff648:	0004      	movs	r4, r0
1ffff64a:	0000      	movs	r0, r0
1ffff64c:	00f8      	lsls	r0, r7, #3
1ffff64e:	2000      	movs	r0, #0
1ffff650:	0026      	movs	r6, r4
1ffff652:	0000      	movs	r0, r0
1ffff654:	0144      	lsls	r4, r0, #5
1ffff656:	2000      	movs	r0, #0
1ffff658:	0024      	movs	r4, r4
1ffff65a:	0000      	movs	r0, r0
1ffff65c:	0e0c      	lsrs	r4, r1, #24
1ffff65e:	2000      	movs	r0, #0
1ffff660:	001a      	movs	r2, r3
1ffff662:	0000      	movs	r0, r0
1ffff664:	0000      	movs	r0, r0
1ffff666:	2000      	movs	r0, #0
1ffff668:	0050      	lsls	r0, r2, #1
1ffff66a:	0000      	movs	r0, r0
1ffff66c:	0050      	lsls	r0, r2, #1
1ffff66e:	2000      	movs	r0, #0
1ffff670:	0048      	lsls	r0, r1, #1
1ffff672:	0000      	movs	r0, r0
1ffff674:	0326      	lsls	r6, r4, #12
1ffff676:	0053      	lsls	r3, r2, #1
1ffff678:	0054      	lsls	r4, r2, #1
1ffff67a:	004d      	lsls	r5, r1, #1
1ffff67c:	0069      	lsls	r1, r5, #1
1ffff67e:	0063      	lsls	r3, r4, #1
1ffff680:	0072      	lsls	r2, r6, #1
1ffff682:	006f      	lsls	r7, r5, #1
1ffff684:	0065      	lsls	r5, r4, #1
1ffff686:	006c      	lsls	r4, r5, #1
1ffff688:	0065      	lsls	r5, r4, #1
1ffff68a:	0063      	lsls	r3, r4, #1
1ffff68c:	0074      	lsls	r4, r6, #1
1ffff68e:	0072      	lsls	r2, r6, #1
1ffff690:	006f      	lsls	r7, r5, #1
1ffff692:	006e      	lsls	r6, r5, #1
1ffff694:	0069      	lsls	r1, r5, #1
1ffff696:	0063      	lsls	r3, r4, #1
1ffff698:	0073      	lsls	r3, r6, #1
1ffff69a:	0000      	movs	r0, r0
1ffff69c:	0209      	lsls	r1, r1, #8
1ffff69e:	0024      	movs	r4, r4
1ffff6a0:	0101      	lsls	r1, r0, #4
1ffff6a2:	c000      	stmia	r0!, {}
1ffff6a4:	0932      	lsrs	r2, r6, #4
1ffff6a6:	0004      	movs	r4, r0
1ffff6a8:	0000      	movs	r0, r0
1ffff6aa:	01fe      	lsls	r6, r7, #7
1ffff6ac:	0402      	lsls	r2, r0, #16
1ffff6ae:	0409      	lsls	r1, r1, #16
1ffff6b0:	0100      	lsls	r0, r0, #4
1ffff6b2:	fe00 0201 	cdp2	2, 0, cr0, cr0, cr1, {0}
1ffff6b6:	0905      	lsrs	r5, r0, #4
1ffff6b8:	0b21      	lsrs	r1, r4, #12
1ffff6ba:	00ff      	lsls	r7, r7, #3
1ffff6bc:	0800      	lsrs	r0, r0, #32
1ffff6be:	011a      	lsls	r2, r3, #4
1ffff6c0:	0324      	lsls	r4, r4, #12
1ffff6c2:	0053      	lsls	r3, r2, #1
1ffff6c4:	0054      	lsls	r4, r2, #1
1ffff6c6:	004d      	lsls	r5, r1, #1
1ffff6c8:	0033      	movs	r3, r6
1ffff6ca:	0032      	movs	r2, r6
1ffff6cc:	0020      	movs	r0, r4
1ffff6ce:	0020      	movs	r0, r4
1ffff6d0:	0042      	lsls	r2, r0, #1
1ffff6d2:	004f      	lsls	r7, r1, #1
1ffff6d4:	004f      	lsls	r7, r1, #1
1ffff6d6:	0054      	lsls	r4, r2, #1
1ffff6d8:	004c      	lsls	r4, r1, #1
1ffff6da:	004f      	lsls	r7, r1, #1
1ffff6dc:	0041      	lsls	r1, r0, #1
1ffff6de:	0044      	lsls	r4, r0, #1
1ffff6e0:	0045      	lsls	r5, r0, #1
1ffff6e2:	0052      	lsls	r2, r2, #1
	...
1ffff6fc:	0000      	movs	r0, r0
1ffff6fe:	0800      	lsrs	r0, r0, #32
1ffff700:	0000      	movs	r0, r0
1ffff702:	0800      	lsrs	r0, r0, #32
1ffff704:	3800      	subs	r0, #0
1ffff706:	4001      	ands	r1, r0
1ffff708:	4400      	add	r0, r0
1ffff70a:	4000      	ands	r0, r0
1ffff70c:	3800      	subs	r0, #0
1ffff70e:	4001      	ands	r1, r0
	...
1ffff730:	ffff 0001 	vaddl.u<illegal width 64>	q8, d15, d1
1ffff734:	0112      	lsls	r2, r2, #4
1ffff736:	0100      	lsls	r0, r0, #4
1ffff738:	0000      	movs	r0, r0
1ffff73a:	4000      	ands	r0, r0
1ffff73c:	0483      	lsls	r3, r0, #18
1ffff73e:	df11      	svc	17
1ffff740:	2200      	movs	r2, #0
1ffff742:	0201      	lsls	r1, r0, #8
1ffff744:	0103      	lsls	r3, r0, #4
1ffff746:	0000      	movs	r0, r0
1ffff748:	01b8      	lsls	r0, r7, #6
1ffff74a:	2000      	movs	r0, #0
1ffff74c:	0012      	movs	r2, r2
1ffff74e:	0000      	movs	r0, r0
1ffff750:	0120      	lsls	r0, r4, #4
1ffff752:	2000      	movs	r0, #0
1ffff754:	0024      	movs	r4, r4
1ffff756:	0000      	movs	r0, r0
1ffff758:	0304      	lsls	r4, r0, #12
1ffff75a:	0409      	lsls	r1, r1, #16
1ffff75c:	0001      	movs	r1, r0
1ffff75e:	0000      	movs	r0, r0
1ffff760:	ffff ffff 			@ <UNDEFINED> instruction: 0xffffffff
1ffff764:	ffff ffff 			@ <UNDEFINED> instruction: 0xffffffff
1ffff768:	ffff ffff 			@ <UNDEFINED> instruction: 0xffffffff
1ffff76c:	ffff ffff 			@ <UNDEFINED> instruction: 0xffffffff
1ffff770:	7061      	strb	r1, [r4, #1]
1ffff772:	3268      	adds	r2, #104	@ 0x68
1ffff774:	ffff ffff 			@ <UNDEFINED> instruction: 0xffffffff
1ffff778:	ffff ffff 			@ <UNDEFINED> instruction: 0xffffffff
1ffff77c:	ffff ffff 			@ <UNDEFINED> instruction: 0xffffffff
1ffff780:	ffff ffff 			@ <UNDEFINED> instruction: 0xffffffff
1ffff784:	ffff ffff 			@ <UNDEFINED> instruction: 0xffffffff
1ffff788:	ffff ffff 			@ <UNDEFINED> instruction: 0xffffffff
1ffff78c:	ffff ffff 			@ <UNDEFINED> instruction: 0xffffffff
1ffff790:	ffff 0022 	vaddl.u<illegal width 64>	q8, d15, d18
1ffff794:	0031      	movs	r1, r6
1ffff796:	0041      	lsls	r1, r0, #1
1ffff798:	fffc ffff 			@ <UNDEFINED> instruction: 0xfffcffff
1ffff79c:	ffff ffff 			@ <UNDEFINED> instruction: 0xffffffff
1ffff7a0:	ffff ffff 			@ <UNDEFINED> instruction: 0xffffffff
1ffff7a4:	ffff ffff 			@ <UNDEFINED> instruction: 0xffffffff
1ffff7a8:	fff0 ffff 			@ <UNDEFINED> instruction: 0xfff0ffff
1ffff7ac:	0032      	movs	r2, r6
1ffff7ae:	0024      	movs	r4, r4
1ffff7b0:	5703      	ldrsb	r3, [r0, r4]
1ffff7b2:	5434      	strb	r4, [r6, r0]
1ffff7b4:	3430      	adds	r4, #48	@ 0x30
1ffff7b6:	2034      	movs	r0, #52	@ 0x34
1ffff7b8:	06eb      	lsls	r3, r5, #27
1ffff7ba:	05f5      	lsls	r5, r6, #23
1ffff7bc:	fffc ffff 			@ <UNDEFINED> instruction: 0xfffcffff
1ffff7c0:	ffff 0510 	vsli.32	d16, d0, #31
1ffff7c4:	ffff ffff 			@ <UNDEFINED> instruction: 0xffffffff
1ffff7c8:	fff3 ffff 			@ <UNDEFINED> instruction: 0xfff3ffff
1ffff7cc:	0100      	lsls	r0, r0, #4
1ffff7ce:	ffff ffff 			@ <UNDEFINED> instruction: 0xffffffff
1ffff7d2:	ffff ffff 			@ <UNDEFINED> instruction: 0xffffffff
1ffff7d6:	ffff ffff 			@ <UNDEFINED> instruction: 0xffffffff
1ffff7da:	ffff ffff 			@ <UNDEFINED> instruction: 0xffffffff
1ffff7de:	ffff ffff 			@ <UNDEFINED> instruction: 0xffffffff
1ffff7e2:	ffff ffff 			@ <UNDEFINED> instruction: 0xffffffff
1ffff7e6:	ffff 7b84 	vtbl.8	d23, {d31-<overflow reg d34}, d4
1ffff7ea:	ffff ffff 			@ <UNDEFINED> instruction: 0xffffffff
1ffff7ee:	ffff ef10 	vcvt.u32.f32	d30, d0, #1
1ffff7f2:	3dc2      	subs	r5, #194	@ 0xc2
1ffff7f4:	f807 de21 	strbt	sp, [r7, #33]
1ffff7f8:	9768      	str	r7, [sp, #416]	@ 0x1a0
1ffff7fa:	00ff      	lsls	r7, r7, #3
1ffff7fc:	b946      	cbnz	r6, 0x1ffff810
1ffff7fe:	40bf      	lsls	r7, r7
